 model2_sfun

 Timestamp is 5a01fc42 (Tue Nov 07 12:32:34 2017)

 Preferred load address is 0000000180000000

 Start         Length     Name                   Class
 0001:00000000 0004cad4H .text                   CODE
 0001:0004cae0 00000092H .text$x                 CODE
 0002:00000000 000004b0H .idata$5                DATA
 0002:000004b0 00000008H .CRT$XCA                DATA
 0002:000004b8 00000008H .CRT$XCZ                DATA
 0002:000004c0 00000008H .CRT$XIA                DATA
 0002:000004c8 00000008H .CRT$XIAA               DATA
 0002:000004d0 00000008H .CRT$XIZ                DATA
 0002:000004e0 00004c1cH .rdata                  DATA
 0002:00005100 00000008H .rtc$IAA                DATA
 0002:00005108 00000008H .rtc$IZZ                DATA
 0002:00005110 00000008H .rtc$TAA                DATA
 0002:00005118 00000008H .rtc$TZZ                DATA
 0002:00005120 00004584H .xdata                  DATA
 0002:000096a4 000000a0H .idata$2                DATA
 0002:00009744 00000014H .idata$3                DATA
 0002:00009758 000004b0H .idata$4                DATA
 0002:00009c08 00000aecH .idata$6                DATA
 0002:0000a700 00000051H .edata                  DATA
 0003:00000000 00007368H .data                   DATA
 0003:00007380 00002718H .bss                    DATA
 0004:00000000 00003834H .pdata                  DATA

  Address         Publics by Value              Rva+Base               Lib:Object

 0000:00000000       ___safe_se_handler_table   0000000000000000     <absolute>
 0000:00000000       ___safe_se_handler_count   0000000000000000     <absolute>
 0000:00000000       __ImageBase                0000000180000000     <linker-defined>
 0001:00000000       sf_c1_model2_get_eml_resolved_functions_info 0000000180001000 f   c1_model2.obj
 0001:00000fc0       sf_c1_model2_get_check_sum 0000000180001fc0 f   c1_model2.obj
 0001:00001040       sf_c1_model2_get_autoinheritance_info 0000000180002040 f   c1_model2.obj
 0001:000012e0       sf_internal_get_sim_state_c1_model2 00000001800022e0 f   c1_model2.obj
 0001:000015a0       sf_internal_set_sim_state_c1_model2 00000001800025a0 f   c1_model2.obj
 0001:00001870       sf_c1_model2_get_testpoint_info 0000000180002870 f   c1_model2.obj
 0001:000018b0       c1_model2_method_dispatcher 00000001800028b0 f   c1_model2.obj
 0001:000064f0       sf_c2_model2_get_eml_resolved_functions_info 00000001800074f0 f   c2_model2.obj
 0001:00006b80       sf_c2_model2_get_check_sum 0000000180007b80 f   c2_model2.obj
 0001:00006c00       sf_c2_model2_get_autoinheritance_info 0000000180007c00 f   c2_model2.obj
 0001:00007530       sf_internal_get_sim_state_c2_model2 0000000180008530 f   c2_model2.obj
 0001:000078a0       sf_internal_set_sim_state_c2_model2 00000001800088a0 f   c2_model2.obj
 0001:00007cc0       sf_c2_model2_get_testpoint_info 0000000180008cc0 f   c2_model2.obj
 0001:00007d00       c2_model2_method_dispatcher 0000000180008d00 f   c2_model2.obj
 0001:0000b8a0       sf_c3_model2_get_eml_resolved_functions_info 000000018000c8a0 f   c3_model2.obj
 0001:0000cd00       sf_c3_model2_get_check_sum 000000018000dd00 f   c3_model2.obj
 0001:0000cd80       sf_c3_model2_get_autoinheritance_info 000000018000dd80 f   c3_model2.obj
 0001:0000d2f0       sf_internal_get_sim_state_c3_model2 000000018000e2f0 f   c3_model2.obj
 0001:0000d6c0       sf_internal_set_sim_state_c3_model2 000000018000e6c0 f   c3_model2.obj
 0001:0000dbc0       sf_c3_model2_get_testpoint_info 000000018000ebc0 f   c3_model2.obj
 0001:0000dc00       c3_model2_method_dispatcher 000000018000ec00 f   c3_model2.obj
 0001:00012780       sf_c4_model2_get_eml_resolved_functions_info 0000000180013780 f   c4_model2.obj
 0001:00012800       sf_c4_model2_get_check_sum 0000000180013800 f   c4_model2.obj
 0001:00012880       sf_c4_model2_get_autoinheritance_info 0000000180013880 f   c4_model2.obj
 0001:00012df0       sf_internal_get_sim_state_c4_model2 0000000180013df0 f   c4_model2.obj
 0001:00013220       sf_internal_set_sim_state_c4_model2 0000000180014220 f   c4_model2.obj
 0001:00013690       sf_c4_model2_get_testpoint_info 0000000180014690 f   c4_model2.obj
 0001:000136d0       c4_model2_method_dispatcher 00000001800146d0 f   c4_model2.obj
 0001:00015400       sf_c5_model2_get_eml_resolved_functions_info 0000000180016400 f   c5_model2.obj
 0001:00015f50       sf_c5_model2_get_check_sum 0000000180016f50 f   c5_model2.obj
 0001:00015fd0       sf_c5_model2_get_autoinheritance_info 0000000180016fd0 f   c5_model2.obj
 0001:00016bb0       sf_internal_get_sim_state_c5_model2 0000000180017bb0 f   c5_model2.obj
 0001:00017160       sf_internal_set_sim_state_c5_model2 0000000180018160 f   c5_model2.obj
 0001:00017670       sf_c5_model2_get_testpoint_info 0000000180018670 f   c5_model2.obj
 0001:000176b0       c5_model2_method_dispatcher 00000001800186b0 f   c5_model2.obj
 0001:00019f60       sf_process_check_sum_call  000000018001af60 f   model2_sfun_registry.obj
 0001:00019fb0       sf_process_testpoint_info_call 000000018001afb0 f   model2_sfun_registry.obj
 0001:0001a000       sf_process_autoinheritance_call 000000018001b000 f   model2_sfun_registry.obj
 0001:0001a1a0       sf_process_get_eml_resolved_functions_info_call 000000018001b1a0 f   model2_sfun_registry.obj
 0001:0001a320       sf_mex_unlock_call         000000018001b320 f   model2_sfun_registry.obj
 0001:0001a3d0       sf_machine_global_initializer_called 000000018001b3d0 f   model2_sfun_registry.obj
 0001:0001a400       sf_machine_global_method_dispatcher 000000018001b400 f   model2_sfun_registry.obj
 0001:0001a460       sf_machine_global_terminator 000000018001b460 f   model2_sfun_registry.obj
 0001:0001a4a0       sf_register_machine_exported_symbols 000000018001b4a0 f   model2_sfun_registry.obj
 0001:0001a4c0       callCustomFcn              000000018001b4c0 f   model2_sfun_registry.obj
 0001:0001a4d0       sf_machine_global_initializer 000000018001b4d0 f   model2_sfun_registry.obj
 0001:0001a540       _ssSetStateAbsTol          000000018001b540 f   model2_sfun_registry.obj
 0001:0001a620       _ssGetAbsTol               000000018001b620 f   model2_sfun_registry.obj
 0001:0001a690       _ssSetInputPortMatrixDimensions 000000018001b690 f   model2_sfun_registry.obj
 0001:0001a7a0       _ssSetOutputPortMatrixDimensions 000000018001b7a0 f   model2_sfun_registry.obj
 0001:0001a8b0       _ssSetInputPortVectorDimension 000000018001b8b0 f   model2_sfun_registry.obj
 0001:0001a980       _ssSetOutputPortVectorDimension 000000018001b980 f   model2_sfun_registry.obj
 0001:0001aa50       ssIsRunTimeParamTunable    000000018001ba50 f   model2_sfun_registry.obj
 0001:0001aac0       ssGetSFuncBlockHandle      000000018001bac0 f   model2_sfun_registry.obj
 0001:0001ab30       _ssGetCurrentInputPortWidth 000000018001bb30 f   model2_sfun_registry.obj
 0001:0001ac50       _ssGetCurrentOutputPortWidth 000000018001bc50 f   model2_sfun_registry.obj
 0001:0001ad70       _ssGetCallSystemNumFcnCallDestinations 000000018001bd70 f   model2_sfun_registry.obj
 0001:0001ade0       ssWarning                  000000018001bde0 f   model2_sfun_registry.obj
 0001:0001aef0       ssGetIsZeroCrossControlDisabled 000000018001bef0 f   model2_sfun_registry.obj
 0001:0001af60       ssSetIsInputPortUsedForContZcSignal 000000018001bf60 f   model2_sfun_registry.obj
 0001:0001afd0       ssSetZcSignalIsZcElementDisc 000000018001bfd0 f   model2_sfun_registry.obj
 0001:0001b080       ssSetZcSignalName          000000018001c080 f   model2_sfun_registry.obj
 0001:0001b0f0       ssSetZcSignalWidth         000000018001c0f0 f   model2_sfun_registry.obj
 0001:0001b160       ssSetZcSignalZcEventType   000000018001c160 f   model2_sfun_registry.obj
 0001:0001b1d0       ssSetZcSignalType          000000018001c1d0 f   model2_sfun_registry.obj
 0001:0001b240       ssSetZcSignalZcTol         000000018001c240 f   model2_sfun_registry.obj
 0001:0001b2b0       ssSetZcSignalNeedsEventNotification 000000018001c2b0 f   model2_sfun_registry.obj
 0001:0001b320       ssCreateAndAddZcSignalInfo 000000018001c320 f   model2_sfun_registry.obj
 0001:0001b390       ssCloneAndAddZcSignalInfo  000000018001c390 f   model2_sfun_registry.obj
 0001:0001b400       ssGetNumZcSignals          000000018001c400 f   model2_sfun_registry.obj
 0001:0001b470       ssGetZcSignalVector        000000018001c470 f   model2_sfun_registry.obj
 0001:0001b4e0       ssGetZcSignalZcEvents      000000018001c4e0 f   model2_sfun_registry.obj
 0001:0001b550       ssGetZcSignalName          000000018001c550 f   model2_sfun_registry.obj
 0001:0001b5c0       ssGetZcSignalWidth         000000018001c5c0 f   model2_sfun_registry.obj
 0001:0001b630       ssGetZcSignalZcEventType   000000018001c630 f   model2_sfun_registry.obj
 0001:0001b6a0       ssGetZcSignalType          000000018001c6a0 f   model2_sfun_registry.obj
 0001:0001b710       ssGetZcSignalZcTol         000000018001c710 f   model2_sfun_registry.obj
 0001:0001b790       ssGetZcSignalNeedsEventNotification 000000018001c790 f   model2_sfun_registry.obj
 0001:0001b800       ssGetZcSignalIsZcElementDisc 000000018001c800 f   model2_sfun_registry.obj
 0001:0001b8a0       ssGetIsInputPortElementContinuous 000000018001c8a0 f   model2_sfun_registry.obj
 0001:0001b940       _ssGetInputPortSignalPtrsFcn 000000018001c940 f   model2_sfun_registry.obj
 0001:0001bc00       _ssGetInputPortSignalFcn   000000018001cc00 f   model2_sfun_registry.obj
 0001:0001be20       _ssSetInputPortDirectFeedThroughFcn 000000018001ce20 f   model2_sfun_registry.obj
 0001:0001bf80       _ssSetInputPortReusableFcn 000000018001cf80 f   model2_sfun_registry.obj
 0001:0001c070       _ssSetOutputPortReusableFcn 000000018001d070 f   model2_sfun_registry.obj
 0001:0001c150       ssGetDTypeIdFromMxArray    000000018001d150 f   model2_sfun_registry.obj
 0001:0001c270       ssWriteRTWStr              000000018001d270 f   model2_sfun_registry.obj
 0001:0001c2d0       ssWriteRTWMxVectParam      000000018001d2d0 f   model2_sfun_registry.obj
 0001:0001c330       ssWriteRTWMx2dMatParam     000000018001d330 f   model2_sfun_registry.obj
 0001:0001c3b0       ssWriteRTWNameValuePair    000000018001d3b0 f   model2_sfun_registry.obj
 0001:0001c8a0       ssWriteRTWParameters       000000018001d8a0 f   model2_sfun_registry.obj
 0001:0001cea0       ssWriteRTWParamSettings    000000018001dea0 f   model2_sfun_registry.obj
 0001:0001d570       ssWriteRTWWorkVect         000000018001e570 f   model2_sfun_registry.obj
 0001:0001da70       mexFunction                000000018001ea70 f   model2_sfun_registry.obj
 0001:0001f750       ProcessMexSfunctionEveryCall 0000000180020750 f   model2_sfun_registry.obj
 0001:0001f8c0       model2_initializer         00000001800208c0 f   model2_sfun.obj
 0001:0001f8d0       model2_terminator          00000001800208d0 f   model2_sfun.obj
 0001:0001f8e0       sf_model2_method_dispatcher 00000001800208e0 f   model2_sfun.obj
 0001:0001f9b0       sf_model2_process_testpoint_info_call 00000001800209b0 f   model2_sfun.obj
 0001:0001fba0       sf_model2_process_check_sum_call 0000000180020ba0 f   model2_sfun.obj
 0001:00020000       sf_model2_autoinheritance_info 0000000180021000 f   model2_sfun.obj
 0001:000202b0       sf_model2_get_eml_resolved_functions_info 00000001800212b0 f   model2_sfun.obj
 0001:000204f0       model2_debug_initialize    00000001800214f0 f   model2_sfun.obj
 0001:00020560       model2_register_exported_symbols 0000000180021560 f   model2_sfun.obj
 0001:00020570       load_model2_optimization_info 0000000180021570 f   model2_sfun.obj
 0001:000205c0       unload_model2_optimization_info 00000001800215c0 f   model2_sfun.obj
 0001:000206e0       sf_mex_mx_is_numeric       00000001800216e0 f   sfc_mex:sfc_mex.obj
 0001:00020720       strcmp_ignore_ws           0000000180021720 f   sfc_mex:sfc_mex.obj
 0001:00020860       sf_mex_duplicatearraysafe  0000000180021860 f   sfc_mex:sfc_mex.obj
 0001:000209c0       sf_set_error_debugger_context_message_fcn 00000001800219c0 f   sfc_mex:sfc_mex.obj
 0001:000209d0       sf_set_debugger_matlab_error_fcn 00000001800219d0 f   sfc_mex:sfc_mex.obj
 0001:00020a00       sf_set_error_prefix_string 0000000180021a00 f   sfc_mex:sfc_mex.obj
 0001:00020a30       sf_get_error_prefix_string 0000000180021a30 f   sfc_mex:sfc_mex.obj
 0001:00020a40       sf_mex_enter_parallel_region 0000000180021a40 f   sfc_mex:sfc_mex.obj
 0001:00020a50       sf_mex_exit_parallel_region 0000000180021a50 f   sfc_mex:sfc_mex.obj
 0001:00020a60       sf_get_current_jmp_buf_ptr 0000000180021a60 f   sfc_mex:sfc_mex.obj
 0001:00020a70       sf_set_current_jmp_buf_ptr 0000000180021a70 f   sfc_mex:sfc_mex.obj
 0001:00020a80       sf_mex_set_halt_simulation 0000000180021a80 f   sfc_mex:sfc_mex.obj
 0001:00020a90       sf_mex_get_halt_simulation 0000000180021a90 f   sfc_mex:sfc_mex.obj
 0001:00020aa0       sf_mex_clear_error_message 0000000180021aa0 f   sfc_mex:sfc_mex.obj
 0001:00020ac0       sf_mex_get_error_message_for_read 0000000180021ac0 f   sfc_mex:sfc_mex.obj
 0001:00020ad0       sf_mex_get_error_message_buffer_length 0000000180021ad0 f   sfc_mex:sfc_mex.obj
 0001:00020bb0       sf_mex_warning_message     0000000180021bb0 f   sfc_mex:sfc_mex.obj
 0001:00020c20       sf_mex_v_errbuf_createf    0000000180021c20 f   sfc_mex:sfc_mex.obj
 0001:00020c30       sf_mex_errbuf_createf      0000000180021c30 f   sfc_mex:sfc_mex.obj
 0001:00020c60       sf_mex_v_errbuf_catf       0000000180021c60 f   sfc_mex:sfc_mex.obj
 0001:00020ca0       sf_mex_errbuf_catf         0000000180021ca0 f   sfc_mex:sfc_mex.obj
 0001:00020cf0       sf_mex_errbuf_copy         0000000180021cf0 f   sfc_mex:sfc_mex.obj
 0001:00020d00       sf_mex_errbuf_clear        0000000180021d00 f   sfc_mex:sfc_mex.obj
 0001:00020d10       sf_mex_errbuf_isempty      0000000180021d10 f   sfc_mex:sfc_mex.obj
 0001:00020e20       sf_mex_set_error_status    0000000180021e20 f   sfc_mex:sfc_mex.obj
 0001:00020e70       sf_mex_error_direct_call   0000000180021e70 f   sfc_mex:sfc_mex.obj
 0001:00020e90       sf_mex_error_message_no_long_jump 0000000180021e90 f   sfc_mex:sfc_mex.obj
 0001:00020eb0       sf_mex_long_jump_on_error  0000000180021eb0 f   sfc_mex:sfc_mex.obj
 0001:00020ee0       sf_mex_call_matlab         0000000180021ee0 f   sfc_mex:sfc_mex.obj
 0001:00021000       sf_mex_check_builtin       0000000180022000 f   sfc_mex:sfc_mex.obj
 0001:000210a0       sf_mex_check_builtin_vs    00000001800220a0 f   sfc_mex:sfc_mex.obj
 0001:00021160       sf_mex_check_enum          0000000180022160 f   sfc_mex:sfc_mex.obj
 0001:000211e0       sf_mex_create_enum         00000001800221e0 f   sfc_mex:sfc_mex.obj
 0001:00021250       sf_mex_get_enum_element    0000000180022250 f   sfc_mex:sfc_mex.obj
 0001:00021260       sf_mex_createcellarray     0000000180022260 f   sfc_mex:sfc_mex.obj
 0001:00021270       sf_mex_setcell             0000000180022270 f   sfc_mex:sfc_mex.obj
 0001:00021280       sf_mex_getcell             0000000180022280 f   sfc_mex:sfc_mex.obj
 0001:00021290       sf_mex_dup                 0000000180022290 f   sfc_mex:sfc_mex.obj
 0001:000212b0       sf_mex_assign              00000001800222b0 f   sfc_mex:sfc_mex.obj
 0001:00021330       sf_mex_destroy             0000000180022330 f   sfc_mex:sfc_mex.obj
 0001:00021360       mx_array_has_fi_type       0000000180022360 f   sfc_mex:sfc_mex.obj
 0001:00021390       sf_mex_convert_from_fi     0000000180022390 f   sfc_mex:sfc_mex.obj
 0001:000214c0       sf_mex_convert_to_double   00000001800224c0 f   sfc_mex:sfc_mex.obj
 0001:000215e0       sf_mex_import_fi_vs        00000001800225e0 f   sfc_mex:sfc_mex.obj
 0001:000217a0       sf_matrix_matrix_index_ok  00000001800227a0 f   sfc_mex:sfc_mex.obj
 0001:00021830       sf_vector_vector_index_ok  0000000180022830 f   sfc_mex:sfc_mex.obj
 0001:00021860       ssGetCurrentInputPortDimensions_wrapper 0000000180022860 f   sfc_mex:sfc_mex.obj
 0001:00021880       ssGetCurrentOutputPortDimensions_wrapper 0000000180022880 f   sfc_mex:sfc_mex.obj
 0001:000218a0       sf_mex_emlrt_context_is_debug_mode 00000001800228a0 f   sfc_mex:sfc_mex.obj
 0001:000218b0       sf_mex_emlrt_context_set_debug_mode 00000001800228b0 f   sfc_mex:sfc_mex.obj
 0001:000218c0       sf_mex_emlrtNameCapturePostProcessR2012a 00000001800228c0 f   sfc_mex:sfc_mex.obj
 0001:00021930       sf_clear_error_manager_info 0000000180022930 f   sfc_mex:sfc_mex.obj
 0001:00021990       sf_mex_stop_simulation_abruptly_wo_error 0000000180022990 f   sfc_mex:sfc_mex.obj
 0001:000219d0       sf_mex_error_message       00000001800229d0 f   sfc_mex:sfc_mex.obj
 0001:00021a30       sf_react_to_error_in_matlab_call 0000000180022a30 f   sfc_mex:sfc_mex.obj
 0001:00021a60       sf_mex_addfield            0000000180022a60 f   sfc_mex:sfc_mex.obj
 0001:00021b00       sf_mex_getfield            0000000180022b00 f   sfc_mex:sfc_mex.obj
 0001:00021e00       sf_mex_check_class         0000000180022e00 f   sfc_mex:sfc_mex.obj
 0001:00021ea0       sf_mex_is_real             0000000180022ea0 f   sfc_mex:sfc_mex.obj
 0001:00022310       sf_mex_decode_encoded_mx_struct_array 0000000180023310 f   sfc_mex:sfc_mex.obj
 0001:000225f0       sf_mex_lw_bounds_check     00000001800235f0 f   sfc_mex:sfc_mex.obj
 0001:00022620       sf_mex_lw_size_eq_check_1d 0000000180023620 f   sfc_mex:sfc_mex.obj
 0001:00022640       sf_mex_lw_size_eq_check_nd 0000000180023640 f   sfc_mex:sfc_mex.obj
 0001:00022820       sf_mex_lw_dim_size_eq_check 0000000180023820 f   sfc_mex:sfc_mex.obj
 0001:00022850       sf_mex_lw_dim_size_geq_check 0000000180023850 f   sfc_mex:sfc_mex.obj
 0001:00022880       sf_mex_lw_sub_assign_size_check_nd 0000000180023880 f   sfc_mex:sfc_mex.obj
 0001:00022ab0       sf_mex_lw_runtime_error_msgid 0000000180023ab0 f   sfc_mex:sfc_mex.obj
 0001:00022ba0       sf_mex_lw_matrix_matrix_index_check 0000000180023ba0 f   sfc_mex:sfc_mex.obj
 0001:00022bc0       sf_mex_lw_vector_vector_index_check 0000000180023bc0 f   sfc_mex:sfc_mex.obj
 0001:00022c00       sf_mex_lw_for_loop_vector_check 0000000180023c00 f   sfc_mex:sfc_mex.obj
 0001:00022c90       sf_mex_lw_non_negative_check 0000000180023c90 f   sfc_mex:sfc_mex.obj
 0001:00022cd0       sf_mex_overflow_error      0000000180023cd0 f   sfc_mex:sfc_mex.obj
 0001:00022ce0       sf_mex_dividebyzero_error  0000000180023ce0 f   sfc_mex:sfc_mex.obj
 0001:00022cf0       sf_mex_unsafe_enum_error   0000000180023cf0 f   sfc_mex:sfc_mex.obj
 0001:00022d00       sf_emlrtErrHandler         0000000180023d00 f   sfc_mex:sfc_mex.obj
 0001:00022de0       sf_mex_size_one_check      0000000180023de0 f   sfc_mex:sfc_mex.obj
 0001:00022e00       sf_mex_printf              0000000180023e00 f   sfc_mex:sfc_mex.obj
 0001:00022fd0       sf_mex_check_size          0000000180023fd0 f   sfc_mex:sfc_mex.obj
 0001:000232a0       sf_mex_check_struct        00000001800242a0 f   sfc_mex:sfc_mex.obj
 0001:00023500       sf_mex_check_struct_vs     0000000180024500 f   sfc_mex:sfc_mex.obj
 0001:00023590       sf_mex_check_fi            0000000180024590 f   sfc_mex:sfc_mex.obj
 0001:00023690       sf_mex_check_fi_vs         0000000180024690 f   sfc_mex:sfc_mex.obj
 0001:00023730       sf_echo_expression         0000000180024730 f   sfc_mex:sfc_mex.obj
 0001:00023790       sf_assertion_failed        0000000180024790 f   sfc_mex:sfc_mex.obj
 0001:00023a70       sf_mex_evalin              0000000180024a70 f   sfc_mex:sfc_mex.obj
 0001:00023ce0       sf_mex_export              0000000180024ce0 f   sfc_mex:sfc_mex.obj
 0001:00023da0       sf_mex_get_ml_var_no_error 0000000180024da0 f   sfc_mex:sfc_mex.obj
 0001:00023f40       sf_mex_get_ml_var          0000000180024f40 f   sfc_mex:sfc_mex.obj
 0001:000243e0       ml_set_element_value_in_array 00000001800253e0 f   sfc_mex:sfc_mex.obj
 0001:00025ab0       sf_mex_call_impl           0000000180026ab0 f   sfc_mex:sfc_mex.obj
 0001:00025fe0       sf_mex_call_debug          0000000180026fe0 f   sfc_mex:sfc_mex.obj
 0001:00026010       sf_mex_call                0000000180027010 f   sfc_mex:sfc_mex.obj
 0001:00026660       sf_mex_createstruct        0000000180027660 f   sfc_mex:sfc_mex.obj
 0001:00026750       sf_mex_createstructarray   0000000180027750 f   sfc_mex:sfc_mex.obj
 0001:000267d0       sf_mex_get_mx_datatype_from_sf_datatype 00000001800277d0 f   sfc_mex:sfc_mex.obj
 0001:00026ae0       sf_mex_ml_var_sub          0000000180027ae0 f   sfc_mex:sfc_mex.obj
 0001:00026cb0       sf_mex_ml_var_subsasgn     0000000180027cb0 f   sfc_mex:sfc_mex.obj
 0001:000270a0       sf_mex_sub                 00000001800280a0 f   sfc_mex:sfc_mex.obj
 0001:000272a0       sf_mex_subsasgn            00000001800282a0 f   sfc_mex:sfc_mex.obj
 0001:00027780       sf_mex_create              0000000180028780 f   sfc_mex:sfc_mex.obj
 0001:000281d0       sf_mex_import_named        00000001800291d0 f   sfc_mex:sfc_mex.obj
 0001:00028230       sf_mex_import              0000000180029230 f   sfc_mex:sfc_mex.obj
 0001:00028280       sf_mex_import_vs           0000000180029280 f   sfc_mex:sfc_mex.obj
 0001:00028390       sf_mex_lower_fixpt_mx_array 0000000180029390 f   sfc_mex:sfc_mex.obj
 0001:00028680       sf_send_message_wrapper    0000000180029680 f   sfc_mex:sfc_sf.obj
 0001:000286b0       sf_receive_message_wrapper 00000001800296b0 f   sfc_mex:sfc_sf.obj
 0001:000286f0       sf_check_out_message_wrapper 00000001800296f0 f   sfc_mex:sfc_sf.obj
 0001:00028730       sf_check_in_message_wrapper 0000000180029730 f   sfc_mex:sfc_sf.obj
 0001:00028770       sf_no_message_wrapper      0000000180029770 f   sfc_mex:sfc_sf.obj
 0001:00028b00       sim_mode_is_rtw_gen        0000000180029b00 f   sfc_mex:sfc_sf.obj
 0001:00028b30       sim_mode_is_external       0000000180029b30 f   sfc_mex:sfc_sf.obj
 0001:00028b40       sim_mode_is_modelref_sim   0000000180029b40 f   sfc_mex:sfc_sf.obj
 0001:00028b60       mdlInitializeSizes         0000000180029b60 f   sfc_mex:sfc_sf.obj
 0001:00028b80       mdlInitializeSampleTimes   0000000180029b80 f   sfc_mex:sfc_sf.obj
 0001:00028bc0       mdlZeroCrossings           0000000180029bc0 f   sfc_mex:sfc_sf.obj
 0001:00028ca0       mdlDerivatives             0000000180029ca0 f   sfc_mex:sfc_sf.obj
 0001:00028d50       mdl_initialize_conditions_processing 0000000180029d50 f   sfc_mex:sfc_sf.obj
 0001:00028d80       mdlInitializeConditions    0000000180029d80 f   sfc_mex:sfc_sf.obj
 0001:00028e40       mdlGetSimState             0000000180029e40 f   sfc_mex:sfc_sf.obj
 0001:00028e50       mdlSetSimState             0000000180029e50 f   sfc_mex:sfc_sf.obj
 0001:00028e60       mdl_ext_mode_exec_processing 0000000180029e60 f   sfc_mex:sfc_sf.obj
 0001:00028e80       mdlExtModeExec             0000000180029e80 f   sfc_mex:sfc_sf.obj
 0001:00029010       mdlTerminate               000000018002a010 f   sfc_mex:sfc_sf.obj
 0001:00029080       mdlRTW                     000000018002a080 f   sfc_mex:sfc_sf.obj
 0001:000290b0       mdlSetWorkWidths           000000018002a0b0 f   sfc_mex:sfc_sf.obj
 0001:000290c0       mdlProcessParameters       000000018002a0c0 f   sfc_mex:sfc_sf.obj
 0001:000290d0       mdl_start_processing       000000018002a0d0 f   sfc_mex:sfc_sf.obj
 0001:00029130       mdlStart                   000000018002a130 f   sfc_mex:sfc_sf.obj
 0001:00029240       mdlEnable                  000000018002a240 f   sfc_mex:sfc_sf.obj
 0001:00029310       mdlDisable                 000000018002a310 f   sfc_mex:sfc_sf.obj
 0001:000293c0       sf_get_chart_instance_ptr  000000018002a3c0 f   sfc_mex:sfc_sf.obj
 0001:000293e0       sf_load_rtw_optimization_info 000000018002a3e0 f   sfc_mex:sfc_sf.obj
 0001:000294b0       sf_rtw_info_uint_prop      000000018002a4b0 f   sfc_mex:sfc_sf.obj
 0001:000295f0       sf_is_chart_inlinable      000000018002a5f0 f   sfc_mex:sfc_sf.obj
 0001:00029610       sf_mark_output_events_with_multiple_callers 000000018002a610 f   sfc_mex:sfc_sf.obj
 0001:000297a0       sf_mark_chart_reusable_outputs 000000018002a7a0 f   sfc_mex:sfc_sf.obj
 0001:00029a00       sf_mark_chart_expressionable_inputs 000000018002aa00 f   sfc_mex:sfc_sf.obj
 0001:00029c60       sf_get_subchart_simstruct  000000018002ac60 f   sfc_mex:sfc_sf.obj
 0001:00029cb0       sf_get_fixpt_data_type_id  000000018002acb0 f   sfc_mex:sfc_sf.obj
 0001:00029cf0       sf_get_enum_data_type_id   000000018002acf0 f   sfc_mex:sfc_sf.obj
 0001:00029d30       sf_get_param_data_type_id  000000018002ad30 f   sfc_mex:sfc_sf.obj
 0001:00029d60       sf_mex_listen_for_ctrl_c_force 000000018002ad60 f   sfc_mex:sfc_sf.obj
 0001:00029e70       sf_mex_draw_now            000000018002ae70 f   sfc_mex:sfc_sf.obj
 0001:00029eb0       sf_mex_set_debugger_sim_status_listener_fcn 000000018002aeb0 f   sfc_mex:sfc_sf.obj
 0001:00029ec0       sf_mex_listen_for_ctrl_c   000000018002aec0 f   sfc_mex:sfc_sf.obj
 0001:00029f50       sf_mex_get_sfun_param      000000018002af50 f   sfc_mex:sfc_sf.obj
 0001:00029fa0       sf_get_runtime_param_data  000000018002afa0 f   sfc_mex:sfc_sf.obj
 0001:00029fe0       sf_call_output_fcn_call    000000018002afe0 f   sfc_mex:sfc_sf.obj
 0001:0002a120       sf_call_output_fcn_enable  000000018002b120 f   sfc_mex:sfc_sf.obj
 0001:0002a1b0       sf_call_output_fcn_disable 000000018002b1b0 f   sfc_mex:sfc_sf.obj
 0001:0002a240       sf_clear_rtw_identifier    000000018002b240 f   sfc_mex:sfc_sf.obj
 0001:0002aa30       sf_set_encoded_dwork_info  000000018002ba30 f   sfc_mex:sfc_sf.obj
 0001:0002aa80       sf_get_dwork_info_from_mat_file 000000018002ba80 f   sfc_mex:sfc_sf.obj
 0001:0002ac40       sf_set_rtw_dwork_info      000000018002bc40 f   sfc_mex:sfc_sf.obj
 0001:0002adb0       mdlOutputs                 000000018002bdb0 f   sfc_mex:sfc_sf.obj
 0001:0002af50       sf_debug_disp              000000018002bf50 f   sfc_debug:sfcdebug.obj
 0001:0002b1b0       sf_debug_data_runtime_size_mismatch_error_check 000000018002c1b0 f   sfc_debug:sfcdebug.obj
 0001:0002b250       sf_debug_try_loading_machine 000000018002c250 f   sfc_debug:sfcdebug.obj
 0001:0002b350       sf_debug_reset_current_state_configuration 000000018002c350 f   sfc_debug:sfcdebug.obj
 0001:0002b3e0       sf_debug_store_current_state_configuration 000000018002c3e0 f   sfc_debug:sfcdebug.obj
 0001:0002b470       sf_debug_restore_previous_state_configuration 000000018002c470 f   sfc_debug:sfcdebug.obj
 0001:0002b500       sf_debug_restore_previous_state_configuration2 000000018002c500 f   sfc_debug:sfcdebug.obj
 0001:0002b590       sf_debug_get_event_scope   000000018002c590 f   sfc_debug:sfcdebug.obj
 0001:0002b700       use_debugger_step_animation 000000018002c700 f   sfc_debug:sfcdebug.obj
 0001:0002b720       sf_debug_get_script_id     000000018002c720 f   sfc_debug:sfcdebug.obj
 0001:0002b7b0       sf_debug_set_script_translation 000000018002c7b0 f   sfc_debug:sfcdebug.obj
 0001:0002b930       sf_debug_extract_message_post_receive_info 000000018002c930 f   sfc_debug:sfcdebug.obj
 0001:0002ba30       sf_debug_get_current_machine_id 000000018002ca30 f   sfc_debug:sfcdebug.obj
 0001:0002ba50       sf_debug_get_current_optional_integer 000000018002ca50 f   sfc_debug:sfcdebug.obj
 0001:0002ba60       sf_debug_get_current_machine_number 000000018002ca60 f   sfc_debug:sfcdebug.obj
 0001:0002ba80       sf_debug_get_current_machine_name 000000018002ca80 f   sfc_debug:sfcdebug.obj
 0001:0002baa0       sf_debug_get_current_chart_id 000000018002caa0 f   sfc_debug:sfcdebug.obj
 0001:0002baf0       sf_debug_get_current_chart_number 000000018002caf0 f   sfc_debug:sfcdebug.obj
 0001:0002bb00       sf_debug_get_current_instance_number 000000018002cb00 f   sfc_debug:sfcdebug.obj
 0001:0002bb10       sf_debug_get_current_is_minor_time_step 000000018002cb10 f   sfc_debug:sfcdebug.obj
 0001:0002bb90       sf_debug_get_current_object_type 000000018002cb90 f   sfc_debug:sfcdebug.obj
 0001:0002bba0       sf_debug_get_current_instance_handle 000000018002cba0 f   sfc_debug:sfcdebug.obj
 0001:0002bc00       sf_debug_get_current_event_type 000000018002cc00 f   sfc_debug:sfcdebug.obj
 0001:0002bc10       sf_debug_get_current_object_id 000000018002cc10 f   sfc_debug:sfcdebug.obj
 0001:0002bc50       sf_debug_get_current_active_event_type 000000018002cc50 f   sfc_debug:sfcdebug.obj
 0001:0002bc60       sf_debug_get_current_active_event_id 000000018002cc60 f   sfc_debug:sfcdebug.obj
 0001:0002bca0       sf_debug_get_current_tag_type 000000018002cca0 f   sfc_debug:sfcdebug.obj
 0001:0002bcb0       sf_debug_get_current_simulation_time 000000018002ccb0 f   sfc_debug:sfcdebug.obj
 0001:0002bcc0       sf_debug_get_current_coverage_percentage 000000018002ccc0 f   sfc_debug:sfcdebug.obj
 0001:0002bcd0       sf_debug_current_statement_context 000000018002ccd0 f   sfc_debug:sfcdebug.obj
 0001:0002bd60       sf_debug_get_current_statement_info 000000018002cd60 f   sfc_debug:sfcdebug.obj
 0001:0002bee0       sf_debug_terminate_instance 000000018002cee0 f   sfc_debug:sfcdebug.obj
 0001:0002c220       sf_debug_assertion_failed  000000018002d220 f   sfc_debug:sfcdebug.obj
 0001:0002c480       sf_debug_set_number_of_data_with_change_event_for_machine 000000018002d480 f   sfc_debug:sfcdebug.obj
 0001:0002c4c0       sf_debug_set_machine_event_thresholds 000000018002d4c0 f   sfc_debug:sfcdebug.obj
 0001:0002c4e0       sf_debug_set_machine_event_scope 000000018002d4e0 f   sfc_debug:sfcdebug.obj
 0001:0002c520       sf_debug_set_machine_data_thresholds 000000018002d520 f   sfc_debug:sfcdebug.obj
 0001:0002c560       sf_debug_set_machine_data_scope 000000018002d560 f   sfc_debug:sfcdebug.obj
 0001:0002c5f0       sf_debug_set_machine_data_name 000000018002d5f0 f   sfc_debug:sfcdebug.obj
 0001:0002c690       sf_debug_set_machine_data_size 000000018002d690 f   sfc_debug:sfcdebug.obj
 0001:0002c7d0       sf_debug_set_machine_data_type 000000018002d7d0 f   sfc_debug:sfcdebug.obj
 0001:0002c940       sf_debug_get_chart_data_number 000000018002d940 f   sfc_debug:sfcdebug.obj
 0001:0002c960       sf_debug_get_chart_event_number 000000018002d960 f   sfc_debug:sfcdebug.obj
 0001:0002c980       sf_debug_set_chart_state_info 000000018002d980 f   sfc_debug:sfcdebug.obj
 0001:0002ca00       sf_debug_set_chart_decomposition 000000018002da00 f   sfc_debug:sfcdebug.obj
 0001:0002ca70       sf_debug_set_chart_substate_count 000000018002da70 f   sfc_debug:sfcdebug.obj
 0001:0002cb50       sf_debug_set_chart_substate_index 000000018002db50 f   sfc_debug:sfcdebug.obj
 0001:0002cbc0       sf_debug_set_chart_state_substate_count 000000018002dbc0 f   sfc_debug:sfcdebug.obj
 0001:0002ccd0       sf_debug_set_chart_state_substate_index 000000018002dcd0 f   sfc_debug:sfcdebug.obj
 0001:0002cd50       sf_debug_set_number_of_data_with_change_event_for_chart 000000018002dd50 f   sfc_debug:sfcdebug.obj
 0001:0002cdd0       sf_debug_set_number_of_states_with_entry_event_for_chart 000000018002ddd0 f   sfc_debug:sfcdebug.obj
 0001:0002ce40       sf_debug_set_number_of_states_with_exit_event_for_chart 000000018002de40 f   sfc_debug:sfcdebug.obj
 0001:0002ceb0       sf_debug_set_chart_disable_implicit_casting 000000018002deb0 f   sfc_debug:sfcdebug.obj
 0001:0002cf20       sf_debug_set_chart_event_thresholds 000000018002df20 f   sfc_debug:sfcdebug.obj
 0001:0002cf90       sf_debug_set_chart_data_compiled_props 000000018002df90 f   sfc_debug:sfcdebug.obj
 0001:0002d2e0       sf_debug_set_chart_data_props 000000018002e2e0 f   sfc_debug:sfcdebug.obj
 0001:0002d600       sf_debug_check_fi_license  000000018002e600 f   sfc_debug:sfcdebug.obj
 0001:0002d7f0       sf_debug_symbol_scope_push 000000018002e7f0 f   sfc_debug:sfcdebug.obj
 0001:0002d830       sf_debug_symbol_scope_push_eml 000000018002e830 f   sfc_debug:sfcdebug.obj
 0001:0002d880       sf_debug_symbol_scope_pop  000000018002e880 f   sfc_debug:sfcdebug.obj
 0001:0002d8c0       sf_debug_symbol_scope_add_importable 000000018002e8c0 f   sfc_debug:sfcdebug.obj
 0001:0002d940       sf_debug_symbol_scope_add  000000018002e940 f   sfc_debug:sfcdebug.obj
 0001:0002d9c0       sf_debug_symbol_scope_add_dyn_importable 000000018002e9c0 f   sfc_debug:sfcdebug.obj
 0001:0002da80       sf_debug_symbol_scope_add_dyn 000000018002ea80 f   sfc_debug:sfcdebug.obj
 0001:0002dab0       sf_debug_symbol_scope_add_eml_importable 000000018002eab0 f   sfc_debug:sfcdebug.obj
 0001:0002daf0       sf_debug_symbol_scope_add_eml 000000018002eaf0 f   sfc_debug:sfcdebug.obj
 0001:0002db30       sf_debug_symbol_scope_add_eml_dyn_importable 000000018002eb30 f   sfc_debug:sfcdebug.obj
 0001:0002dba0       sf_debug_symbol_scope_add_eml_dyn 000000018002eba0 f   sfc_debug:sfcdebug.obj
 0001:0002dc00       sf_debug_symbol_switch     000000018002ec00 f   sfc_debug:sfcdebug.obj
 0001:0002dc20       sf_debug_symbol_scope_add_verbose 000000018002ec20 f   sfc_debug:sfcdebug.obj
 0001:0002dcf0       sf_debug_set_machine_data_value_ptr 000000018002ecf0 f   sfc_debug:sfcdebug.obj
 0001:0002dd30       sf_debug_set_instance_data_value_ptr 000000018002ed30 f   sfc_debug:sfcdebug.obj
 0001:0002ddf0       sf_debug_unset_instance_data_value_ptr 000000018002edf0 f   sfc_debug:sfcdebug.obj
 0001:0002dea0       sf_debug_set_chart_event_scope 000000018002eea0 f   sfc_debug:sfcdebug.obj
 0001:0002df20       sf_debug_set_chart_transition_coverage_maps 000000018002ef20 f   sfc_debug:sfcdebug.obj
 0001:0002e030       sf_debug_set_chart_state_coverage_maps 000000018002f030 f   sfc_debug:sfcdebug.obj
 0001:0002e110       sf_debug_set_instance_transition_coverage_weights 000000018002f110 f   sfc_debug:sfcdebug.obj
 0001:0002e1b0       sf_debug_set_instance_state_coverage_weights 000000018002f1b0 f   sfc_debug:sfcdebug.obj
 0001:0002e400       sf_debug_unload_machine    000000018002f400 f   sfc_debug:sfcdebug.obj
 0001:0002e450       sf_debug_load_machine      000000018002f450 f   sfc_debug:sfcdebug.obj
 0001:0002e550       sf_debug_set_active_instance_in_data_dictionary 000000018002f550 f   sfc_debug:sfcdebug.obj
 0001:0002e730       sf_debug_set_active_instance 000000018002f730 f   sfc_debug:sfcdebug.obj
 0001:0002e890       sf_debug_chart_visiblity_change 000000018002f890 f   sfc_debug:sfcdebug.obj
 0001:0002e990       sf_debug_select_chart      000000018002f990 f   sfc_debug:sfcdebug.obj
 0001:0002eb00       sf_debug_set_instance_cv_ids 000000018002fb00 f   sfc_debug:sfcdebug.obj
 0001:0002ee10       sf_debug_select_charts     000000018002fe10 f   sfc_debug:sfcdebug.obj
 0001:0002efa0       sf_debug_initialized       000000018002ffa0 f   sfc_debug:sfcdebug.obj
 0001:0002efb0       sf_debug_is_uninterruptible 000000018002ffb0 f   sfc_debug:sfcdebug.obj
 0001:0002efe0       sf_debug_initialize_debugger_gui 000000018002ffe0 f   sfc_debug:sfcdebug.obj
 0001:0002f3d0       sf_debug_resume            00000001800303d0 f   sfc_debug:sfcdebug.obj
 0001:0002f3f0       sf_debug_go                00000001800303f0 f   sfc_debug:sfcdebug.obj
 0001:0002f400       sf_debug_break             0000000180030400 f   sfc_debug:sfcdebug.obj
 0001:0002f410       sf_debug_step_over         0000000180030410 f   sfc_debug:sfcdebug.obj
 0001:0002f420       sf_debug_step_out          0000000180030420 f   sfc_debug:sfcdebug.obj
 0001:0002f430       sf_debug_set_disable_all_breakpoints 0000000180030430 f   sfc_debug:sfcdebug.obj
 0001:0002f440       sf_debug_disable_all_breakpoints_and_go 0000000180030440 f   sfc_debug:sfcdebug.obj
 0001:0002f450       sf_debug_break_on_chart_entry 0000000180030450 f   sfc_debug:sfcdebug.obj
 0001:0002f460       sf_debug_break_on_event_broadcast 0000000180030460 f   sfc_debug:sfcdebug.obj
 0001:0002f470       sf_debug_break_on_state_entry 0000000180030470 f   sfc_debug:sfcdebug.obj
 0001:0002f480       sf_debug_break_between_times 0000000180030480 f   sfc_debug:sfcdebug.obj
 0001:0002f4a0       sf_debug_browse_data       00000001800304a0 f   sfc_debug:sfcdebug.obj
 0001:0002f4c0       sf_debug_watch_data        00000001800304c0 f   sfc_debug:sfcdebug.obj
 0001:0002f4e0       sf_debug_assign_data       00000001800304e0 f   sfc_debug:sfcdebug.obj
 0001:0002f500       sf_debug_whos              0000000180030500 f   sfc_debug:sfcdebug.obj
 0001:0002f520       sf_debug_get_consistency_info 0000000180030520 f   sfc_debug:sfcdebug.obj
 0001:0002f530       sf_debug_browse_trace      0000000180030530 f   sfc_debug:sfcdebug.obj
 0001:0002f540       sf_debug_set_breakpoints   0000000180030540 f   sfc_debug:sfcdebug.obj
 0001:0002f6a0       sf_debug_set_eml_breakpoints 00000001800306a0 f   sfc_debug:sfcdebug.obj
 0001:0002f800       sf_debug_set_script_breakpoints 0000000180030800 f   sfc_debug:sfcdebug.obj
 0001:0002f880       sf_debug_add_script_breakpoints 0000000180030880 f   sfc_debug:sfcdebug.obj
 0001:0002f8f0       sf_debug_clear_script_breakpoints 00000001800308f0 f   sfc_debug:sfcdebug.obj
 0001:0002f960       sf_debug_query_script_breakpoints 0000000180030960 f   sfc_debug:sfcdebug.obj
 0001:0002fa20       sf_debug_get_eml_script_id 0000000180030a20 f   sfc_debug:sfcdebug.obj
 0001:0002fa70       sf_debug_set_watch         0000000180030a70 f   sfc_debug:sfcdebug.obj
 0001:0002fca0       sf_debug_get_instance_handle 0000000180030ca0 f   sfc_debug:sfcdebug.obj
 0001:0002fd30       sf_debug_get_active_states 0000000180030d30 f   sfc_debug:sfcdebug.obj
 0001:0002fd40       sf_debug_get_animation     0000000180030d40 f   sfc_debug:sfcdebug.obj
 0001:0002fd50       sf_debug_set_animation     0000000180030d50 f   sfc_debug:sfcdebug.obj
 0001:0002fd60       sf_debug_animate           0000000180030d60 f   sfc_debug:sfcdebug.obj
 0001:0002fd90       sf_debug_cycle_detection_check 0000000180030d90 f   sfc_debug:sfcdebug.obj
 0001:0002fda0       sf_debug_data_range_check  0000000180030da0 f   sfc_debug:sfcdebug.obj
 0001:0002fdb0       sf_debug_transition_conflict_check 0000000180030db0 f   sfc_debug:sfcdebug.obj
 0001:0002fdc0       sf_debug_state_consistency_check 0000000180030dc0 f   sfc_debug:sfcdebug.obj
 0001:0002fdd0       sf_debug_data_range_check_enabled 0000000180030dd0 f   sfc_debug:sfcdebug.obj
 0001:0002fdf0       sf_debug_transition_conflict_check_enabled 0000000180030df0 f   sfc_debug:sfcdebug.obj
 0001:0002fe10       sf_debug_transition_conflict_check_begin 0000000180030e10 f   sfc_debug:sfcdebug.obj
 0001:0002fe30       sf_debug_transition_conflict_check_end 0000000180030e30 f   sfc_debug:sfcdebug.obj
 0001:0002fe50       sf_debug_stop_debugging    0000000180030e50 f   sfc_debug:sfcdebug.obj
 0001:0002fe80       sf_debug_is_cycle_detected 0000000180030e80 f   sfc_debug:sfcdebug.obj
 0001:0002fe90       sf_debug_is_array_bounds_detected 0000000180030e90 f   sfc_debug:sfcdebug.obj
 0001:0002fea0       sf_debug_get_state_vectors_data_size 0000000180030ea0 f   sfc_debug:sfcdebug.obj
 0001:0002fee0       sf_debug_get_state_vectors_data 0000000180030ee0 f   sfc_debug:sfcdebug.obj
 0001:0002ffe0       sf_debug_set_state_vectors_data 0000000180030fe0 f   sfc_debug:sfcdebug.obj
 0001:000302a0       sf_debug_get_script_index  00000001800312a0 f   sfc_debug:sfcdebug.obj
 0001:00030430       sf_debug_add_script        0000000180031430 f   sfc_debug:sfcdebug.obj
 0001:000305c0       cv_eval_point              00000001800315c0 f   sfc_debug:sfcdebug.obj
 0001:00030730       cv_eval_testobjective      0000000180031730 f   sfc_debug:sfcdebug.obj
 0001:00030850       sf_debug_cv_init_state     0000000180031850 f   sfc_debug:sfcdebug.obj
 0001:00030970       sf_debug_cv_init_chart     0000000180031970 f   sfc_debug:sfcdebug.obj
 0001:00030a50       sf_debug_cv_init_trans     0000000180031a50 f   sfc_debug:sfcdebug.obj
 0001:00030b50       sf_debug_cv_init_testobjectives 0000000180031b50 f   sfc_debug:sfcdebug.obj
 0001:00030d30       cv_eml_init_script         0000000180031d30 f   sfc_debug:sfcdebug.obj
 0001:00030e40       cv_eml_init_fcn            0000000180031e40 f   sfc_debug:sfcdebug.obj
 0001:00030ef0       cv_eml_init_testobjective  0000000180031ef0 f   sfc_debug:sfcdebug.obj
 0001:00030fc0       cv_eml_init_saturation     0000000180031fc0 f   sfc_debug:sfcdebug.obj
 0001:00031080       cv_eml_init_if             0000000180032080 f   sfc_debug:sfcdebug.obj
 0001:00031150       cv_eml_init_for            0000000180032150 f   sfc_debug:sfcdebug.obj
 0001:00031210       cv_eml_init_while          0000000180032210 f   sfc_debug:sfcdebug.obj
 0001:000312d0       cv_eml_init_mcdc           00000001800322d0 f   sfc_debug:sfcdebug.obj
 0001:000313e0       cv_eml_init_switch         00000001800323e0 f   sfc_debug:sfcdebug.obj
 0001:000314d0       cv_eml_eval                00000001800324d0 f   sfc_debug:sfcdebug.obj
 0001:000315b0       sf_debug_bm_is_a_eml_breakpoint 00000001800325b0 f   sfc_debug:sfcdebug.obj
 0001:00031700       sf_debug_temporal_threshold 0000000180032700 f   sfc_debug:sfcdebug.obj
 0001:00031a60       sf_debug_transition_conflict_error 0000000180032a60 f   sfc_debug:sfcdebug.obj
 0001:00031de0       sf_debug_state_inconsistency_error 0000000180032de0 f   sfc_debug:sfcdebug.obj
 0001:00031f00       sf_debug_check_for_state_inconsistency 0000000180032f00 f   sfc_debug:sfcdebug.obj
 0001:00031f30       sf_debug_cycle_detecton_error 0000000180032f30 f   sfc_debug:sfcdebug.obj
 0001:00032700       sf_debug_size_eq_check_1d  0000000180033700 f   sfc_debug:sfcdebug.obj
 0001:00032720       sf_debug_size_eq_check_nd  0000000180033720 f   sfc_debug:sfcdebug.obj
 0001:00032900       sf_debug_dim_size_eq_check 0000000180033900 f   sfc_debug:sfcdebug.obj
 0001:00032930       sf_debug_dim_size_geq_check 0000000180033930 f   sfc_debug:sfcdebug.obj
 0001:00032960       sf_debug_sub_assign_size_check_nd 0000000180033960 f   sfc_debug:sfcdebug.obj
 0001:00032ba0       sf_debug_matrix_matrix_index_check 0000000180033ba0 f   sfc_debug:sfcdebug.obj
 0001:00032bd0       sf_debug_vector_vector_index_check 0000000180033bd0 f   sfc_debug:sfcdebug.obj
 0001:00032c00       sf_debug_for_loop_vector_check 0000000180033c00 f   sfc_debug:sfcdebug.obj
 0001:00032c90       sf_debug_runtime_error_msgid 0000000180033c90 f   sfc_debug:sfcdebug.obj
 0001:00032d20       sf_debug_data_array_bounds_error_check 0000000180033d20 f   sfc_debug:sfcdebug.obj
 0001:00032e30       sf_debug_eml_data_array_bounds_error_check 0000000180033e30 f   sfc_debug:sfcdebug.obj
 0001:00033310       sf_debug_integer_check     0000000180034310 f   sfc_debug:sfcdebug.obj
 0001:000333f0       sf_debug_not_nan_check     00000001800343f0 f   sfc_debug:sfcdebug.obj
 0001:000334b0       sf_debug_non_negative_check 00000001800344b0 f   sfc_debug:sfcdebug.obj
 0001:00033570       sf_debug_overflow_detection 0000000180034570 f   sfc_debug:sfcdebug.obj
 0001:00033c60       sf_debug_cast_to_real32_T  0000000180034c60 f   sfc_debug:sfcdebug.obj
 0001:00033d20       sf_debug_cast_to_int8_T    0000000180034d20 f   sfc_debug:sfcdebug.obj
 0001:00033de0       sf_debug_cast_to_uint8_T   0000000180034de0 f   sfc_debug:sfcdebug.obj
 0001:00033ea0       sf_debug_cast_to_int16_T   0000000180034ea0 f   sfc_debug:sfcdebug.obj
 0001:00033f60       sf_debug_cast_to_uint16_T  0000000180034f60 f   sfc_debug:sfcdebug.obj
 0001:00034020       sf_debug_cast_to_int32_T   0000000180035020 f   sfc_debug:sfcdebug.obj
 0001:000340e0       sf_debug_cast_to_uint32_T  00000001800350e0 f   sfc_debug:sfcdebug.obj
 0001:000341a0       sf_debug_data_range_error  00000001800351a0 f   sfc_debug:sfcdebug.obj
 0001:000344f0       sf_debug_read_before_write_check 00000001800354f0 f   sfc_debug:sfcdebug.obj
 0001:00034950       sf_debug_data_range_error_wrapper_min_max 0000000180035950 f   sfc_debug:sfcdebug.obj
 0001:00034a40       sf_debug_data_range_error_wrapper_min 0000000180035a40 f   sfc_debug:sfcdebug.obj
 0001:00034b20       sf_debug_data_range_error_wrapper_max 0000000180035b20 f   sfc_debug:sfcdebug.obj
 0001:00034c00       sf_debug_data_range_wrapper 0000000180035c00 f   sfc_debug:sfcdebug.obj
 0001:00034cb0       sf_debug_set_current_status_info 0000000180035cb0 f   sfc_debug:sfcdebug.obj
 0001:00035060       sf_debug_register_message_post_receive_info 0000000180036060 f   sfc_debug:sfcdebug.obj
 0001:000352d0       sf_debug_call              00000001800362d0 f   sfc_debug:sfcdebug.obj
 0001:00035f30       sf_debug_initialize_machine 0000000180036f30 f   sfc_debug:sfcdebug.obj
 0001:00036240       sf_debug_initialize_chart  0000000180037240 f   sfc_debug:sfcdebug.obj
 0001:00036690       sf_debug_ensure_script     0000000180037690 f   sfc_debug:sfcdebug.obj
 0001:00036750       cv_script_init_script      0000000180037750 f   sfc_debug:sfcdebug.obj
 0001:00036840       cv_script_init_fcn         0000000180037840 f   sfc_debug:sfcdebug.obj
 0001:000368f0       cv_script_init_testobjective 00000001800378f0 f   sfc_debug:sfcdebug.obj
 0001:000369a0       cv_script_init_if          00000001800379a0 f   sfc_debug:sfcdebug.obj
 0001:00036a50       cv_script_init_for         0000000180037a50 f   sfc_debug:sfcdebug.obj
 0001:00036b00       cv_script_init_while       0000000180037b00 f   sfc_debug:sfcdebug.obj
 0001:00036bb0       cv_script_init_mcdc        0000000180037bb0 f   sfc_debug:sfcdebug.obj
 0001:00036cb0       cv_script_init_switch      0000000180037cb0 f   sfc_debug:sfcdebug.obj
 0001:00036d90       cv_script_eval             0000000180037d90 f   sfc_debug:sfcdebug.obj
 0001:00036e70       eml_debug_line_call        0000000180037e70 f   sfc_debug:sfcdebug.obj
 0001:00037020       sf_debug_terminate         0000000180038020 f   sfc_debug:sfcdebug.obj
 0001:00037190       sf_debug_set_script_cv_ids 0000000180038190 f   sfc_debug:sfcdebug.obj
 0001:000372c0       sf_debug_api               00000001800382c0 f   sfc_debug:sfc_api.obj
 0001:00038970       sf_debug_sm_terminate      0000000180039970 f   sfc_debug:sfdb_animation.obj
 0001:00038b30       sf_debug_reset_path_objects 0000000180039b30 f   sfc_debug:sfdb_animation.obj
 0001:00038bb0       sf_debug_sm_reset_object_selection_status 0000000180039bb0 f   sfc_debug:sfdb_animation.obj
 0001:00038c50       sf_debug_sm_reset_state_buffer 0000000180039c50 f   sfc_debug:sfdb_animation.obj
 0001:00038d20       sf_debug_sm_store_state_buffer 0000000180039d20 f   sfc_debug:sfdb_animation.obj
 0001:00038da0       sf_debug_sm_restore_state_buffer1 0000000180039da0 f   sfc_debug:sfdb_animation.obj
 0001:00038e10       sf_debug_sm_restore_state_buffer2 0000000180039e10 f   sfc_debug:sfdb_animation.obj
 0001:00038e80       sf_debug_sm_chart_active   0000000180039e80 f   sfc_debug:sfdb_animation.obj
 0001:00038ed0       sf_debug_sm_select_active_objects 0000000180039ed0 f   sfc_debug:sfdb_animation.obj
 0001:000393c0       sf_debug_sm_is_chart_active 000000018003a3c0 f   sfc_debug:sfdb_animation.obj
 0001:00039400       sf_debug_sm_is_state_active 000000018003a400 f   sfc_debug:sfdb_animation.obj
 0001:00039640       sf_debug_sm_get_active_states 000000018003a640 f   sfc_debug:sfdb_animation.obj
 0001:00039c00       sf_debug_sm_initialize_instance 000000018003ac00 f   sfc_debug:sfdb_animation.obj
 0001:00039e20       sf_debug_sm_change_object_selection_status 000000018003ae20 f   sfc_debug:sfdb_animation.obj
 0001:0003a130       cv_create_interface        000000018003b130 f   sfc_debug:cv_sfinterface.obj
 0001:0003a490       cv_init_trans              000000018003b490 f   sfc_debug:cv_sfinterface.obj
 0001:0003a4e0       cv_init_testobjective      000000018003b4e0 f   sfc_debug:cv_sfinterface.obj
 0001:0003a520       cv_init_state              000000018003b520 f   sfc_debug:cv_sfinterface.obj
 0001:0003a590       cv_init_chart              000000018003b590 f   sfc_debug:cv_sfinterface.obj
 0001:0003a5e0       cv_dec_update_call         000000018003b5e0 f   sfc_debug:cv_sfinterface.obj
 0001:0003a620       cv_cond_update_call        000000018003b620 f   sfc_debug:cv_sfinterface.obj
 0001:0003a660       cv_testobjective_update_call 000000018003b660 f   sfc_debug:cv_sfinterface.obj
 0001:0003a6a0       cv_sigrange_update         000000018003b6a0 f   sfc_debug:cv_sfinterface.obj
 0001:0003a6e0       cvsf_eml_eval              000000018003b6e0 f   sfc_debug:cv_sfinterface.obj
 0001:0003a7d0       cvsf_eml_init_script       000000018003b7d0 f   sfc_debug:cv_sfinterface.obj
 0001:0003a860       cvsf_eml_init_fcn          000000018003b860 f   sfc_debug:cv_sfinterface.obj
 0001:0003a8c0       cvsf_eml_init_testobjective 000000018003b8c0 f   sfc_debug:cv_sfinterface.obj
 0001:0003a920       cvsf_eml_init_saturation   000000018003b920 f   sfc_debug:cv_sfinterface.obj
 0001:0003a970       cvsf_eml_init_if           000000018003b970 f   sfc_debug:cv_sfinterface.obj
 0001:0003a9d0       cvsf_eml_init_for          000000018003b9d0 f   sfc_debug:cv_sfinterface.obj
 0001:0003aa20       cvsf_eml_init_while        000000018003ba20 f   sfc_debug:cv_sfinterface.obj
 0001:0003aa70       cvsf_eml_init_mcdc         000000018003ba70 f   sfc_debug:cv_sfinterface.obj
 0001:0003ab00       cvsf_eml_init_switch       000000018003bb00 f   sfc_debug:cv_sfinterface.obj
 0001:0003ab70       cvsf_script_eval           000000018003bb70 f   sfc_debug:cv_sfinterface.obj
 0001:0003ac60       cvsf_script_init_script    000000018003bc60 f   sfc_debug:cv_sfinterface.obj
 0001:0003acf0       cvsf_script_init_fcn       000000018003bcf0 f   sfc_debug:cv_sfinterface.obj
 0001:0003ad50       cvsf_script_init_testobjective 000000018003bd50 f   sfc_debug:cv_sfinterface.obj
 0001:0003adb0       cvsf_script_init_saturation 000000018003bdb0 f   sfc_debug:cv_sfinterface.obj
 0001:0003ae00       cvsf_script_init_if        000000018003be00 f   sfc_debug:cv_sfinterface.obj
 0001:0003ae60       cvsf_script_init_for       000000018003be60 f   sfc_debug:cv_sfinterface.obj
 0001:0003aeb0       cvsf_script_init_while     000000018003beb0 f   sfc_debug:cv_sfinterface.obj
 0001:0003af00       cvsf_script_init_mcdc      000000018003bf00 f   sfc_debug:cv_sfinterface.obj
 0001:0003af90       cvsf_script_init_switch    000000018003bf90 f   sfc_debug:cv_sfinterface.obj
 0001:0003b000       cv_destroy_interface       000000018003c000 f   sfc_debug:cv_sfinterface.obj
 0001:0003b020       cv_create_instance_objects 000000018003c020 f   sfc_debug:cv_sfinterface.obj
 0001:0003b4d0       cv_is_enabled              000000018003c4d0 f   sfc_debug:cv_sfinterface.obj
 0001:0003b4e0       sf_debug_cv_initialize_script 000000018003c4e0 f   sfc_debug:cv_sfinterface.obj
 0001:0003b690       sf_debug_cv_initialize_instance 000000018003c690 f   sfc_debug:cv_sfinterface.obj
 0001:0003ba30       sf_debug_cv_terminate_chart 000000018003ca30 f   sfc_debug:cv_sfinterface.obj
 0001:0003bb70       cv_call_trans_test         000000018003cb70 f   sfc_debug:cv_sfinterface.obj
 0001:0003bb80       cv_call_sub_cond_test      000000018003cb80 f   sfc_debug:cv_sfinterface.obj
 0001:0003bbc0       sf_debug_st_initialize_machine 000000018003cbc0 f   sfc_debug:sfdb_data_browse.obj
 0001:0003bc80       sf_debug_st_initialize_instance 000000018003cc80 f   sfc_debug:sfdb_data_browse.obj
 0001:0003beb0       sf_debug_st_terminate      000000018003ceb0 f   sfc_debug:sfdb_data_browse.obj
 0001:0003c250       sf_debug_st_set_data_value_ptr_in_machine 000000018003d250 f   sfc_debug:sfdb_data_browse.obj
 0001:0003c2e0       sf_debug_st_set_data_value_ptr_in_instance 000000018003d2e0 f   sfc_debug:sfdb_data_browse.obj
 0001:0003c3c0       sf_debug_st_unset_data_value_ptr_in_machine 000000018003d3c0 f   sfc_debug:sfdb_data_browse.obj
 0001:0003c430       sf_debug_st_unset_data_value_ptr_in_instance 000000018003d430 f   sfc_debug:sfdb_data_browse.obj
 0001:0003c740       sf_debug_mx_value          000000018003d740 f   sfc_debug:sfdb_data_browse.obj
 0001:0003c7a0       sf_debug_mx_packed_vector  000000018003d7a0 f   sfc_debug:sfdb_data_browse.obj
 0001:0003c880       sf_debug_mx_uint_vector    000000018003d880 f   sfc_debug:sfdb_data_browse.obj
 0001:0003c940       sf_debug_st_get_double_value_from_void_ptr_vector 000000018003d940 f   sfc_debug:sfdb_data_browse.obj
 0001:0003d430       sf_debug_st_browse_data    000000018003e430 f   sfc_debug:sfdb_data_browse.obj
 0001:0003dcc0       sf_debug_hm_initialize_instance 000000018003ecc0 f   sfc_debug:sfdb_handle_management.obj
 0001:0003e1f0       sf_debug_hm_get_object_id  000000018003f1f0 f   sfc_debug:sfdb_handle_management.obj
 0001:0003eda0       sf_debug_hm_update_chart_visibility 000000018003fda0 f   sfc_debug:sfdb_handle_management.obj
 0001:00040080       sf_debug_object_is_eml_function 0000000180041080 f   sfc_debug:sfdb_handle_management.obj
 0001:000400f0       sf_debug_hm_initialize_ids_in_machine 00000001800410f0 f   sfc_debug:sfdb_handle_management.obj
 0001:00040260       sf_debug_hm_initialize_ids_in_chart 0000000180041260 f   sfc_debug:sfdb_handle_management.obj
 0001:00040360       sf_debug_hm_initialize_chart 0000000180041360 f   sfc_debug:sfdb_handle_management.obj
 0001:00040b00       sf_debug_hm_terminate      0000000180041b00 f   sfc_debug:sfdb_handle_management.obj
 0001:00040b60       sf_debug_hm_initialize_machine 0000000180041b60 f   sfc_debug:sfdb_handle_management.obj
 0001:00041310       sf_debug_ss_initialize     0000000180042310 f   sfc_debug:sfdb_symbol_scope.obj
 0001:00041330       sf_debug_ss_terminate      0000000180042330 f   sfc_debug:sfdb_symbol_scope.obj
 0001:000413c0       sf_debug_ss_push_symbol_scope 00000001800423c0 f   sfc_debug:sfdb_symbol_scope.obj
 0001:000414c0       sf_debug_ss_push_symbol_scope_eml 00000001800424c0 f   sfc_debug:sfdb_symbol_scope.obj
 0001:00041520       sf_debug_ss_pop_symbol_scope 0000000180042520 f   sfc_debug:sfdb_symbol_scope.obj
 0001:000415d0       sf_debug_ss_add_symbol     00000001800425d0 f   sfc_debug:sfdb_symbol_scope.obj
 0001:00041730       sf_debug_ss_add_symbol_eml 0000000180042730 f   sfc_debug:sfdb_symbol_scope.obj
 0001:00042450       sf_debug_ss_set_data_value 0000000180043450 f   sfc_debug:sfdb_symbol_scope.obj
 0001:00042920       getInstanceNumber          0000000180043920 f   sfc_debug:sfdb_symbol_scope.obj
 0001:000429f0       sf_debug_ss_watch_data     00000001800439f0 f   sfc_debug:sfdb_symbol_scope.obj
 0001:00042b90       sf_debug_ss_assign_data    0000000180043b90 f   sfc_debug:sfdb_symbol_scope.obj
 0001:000435b0       get_data_entry_name        00000001800445b0 f   sfc_debug:sfdb_symbol_scope.obj
 0001:00043600       sf_debug_ss_whos           0000000180044600 f   sfc_debug:sfdb_symbol_scope.obj
 0001:00043d20       sf_debug_cc_initialize_chart 0000000180044d20 f   sfc_debug:sfdb_coverage.obj
 0001:00044710       sf_debug_cc_initialize_instance 0000000180045710 f   sfc_debug:sfdb_coverage.obj
 0001:00045520       sf_debug_cc_terminate      0000000180046520 f   sfc_debug:sfdb_coverage.obj
 0001:00045610       sf_debug_cc_set_transition_maps 0000000180046610 f   sfc_debug:sfdb_coverage.obj
 0001:00045740       sf_debug_cc_set_state_maps 0000000180046740 f   sfc_debug:sfdb_coverage.obj
 0001:00045820       sf_debug_cc_set_transition_weights 0000000180046820 f   sfc_debug:sfdb_coverage.obj
 0001:00045af0       sf_debug_cc_set_state_weights 0000000180046af0 f   sfc_debug:sfdb_coverage.obj
 0001:00045dc0       sf_debug_cc_mark_transition_guard 0000000180046dc0 f   sfc_debug:sfdb_coverage.obj
 0001:00045e50       sf_debug_cc_mark_transition_trigger 0000000180046e50 f   sfc_debug:sfdb_coverage.obj
 0001:00045ee0       sf_debug_cc_mark_transition_decision 0000000180046ee0 f   sfc_debug:sfdb_coverage.obj
 0001:00045f50       sf_debug_cc_mark_transition_condition_action 0000000180046f50 f   sfc_debug:sfdb_coverage.obj
 0001:00045fa0       sf_debug_cc_mark_transition_transition_action 0000000180046fa0 f   sfc_debug:sfdb_coverage.obj
 0001:00045ff0       sf_debug_cc_mark_state_entry 0000000180046ff0 f   sfc_debug:sfdb_coverage.obj
 0001:00046040       sf_debug_cc_mark_state_during 0000000180047040 f   sfc_debug:sfdb_coverage.obj
 0001:00046090       sf_debug_cc_mark_state_exit 0000000180047090 f   sfc_debug:sfdb_coverage.obj
 0001:000460e0       sf_debug_bm_clear_script_breakpoints 00000001800470e0 f   sfc_debug:sfdb_breakpoints.obj
 0001:00046110       sf_debug_bm_set_script_breakpoint 0000000180047110 f   sfc_debug:sfdb_breakpoints.obj
 0001:00046190       sf_debug_bm_clear_single_script_breakpoint 0000000180047190 f   sfc_debug:sfdb_breakpoints.obj
 0001:00046210       sf_debug_bm_query_script_breakpoint 0000000180047210 f   sfc_debug:sfdb_breakpoints.obj
 0001:00046260       sf_debug_bm_initialize_scripts 0000000180047260 f   sfc_debug:sfdb_breakpoints.obj
 0001:00046980       sf_debug_bm_terminate      0000000180047980 f   sfc_debug:sfdb_breakpoints.obj
 0001:00046c70       sf_debug_bm_remove_all_breakpoints_in_machine 0000000180047c70 f   sfc_debug:sfdb_breakpoints.obj
 0001:00046ce0       sf_debug_bm_remove_all_breakpoints_in_chart 0000000180047ce0 f   sfc_debug:sfdb_breakpoints.obj
 0001:00046e30       sf_debug_bm_initialize_global_breakpoints 0000000180047e30 f   sfc_debug:sfdb_breakpoints.obj
 0001:00046fb0       sf_debug_bm_set_breakpoint 0000000180047fb0 f   sfc_debug:sfdb_breakpoints.obj
 0001:000475b0       sf_debug_bm_set_eml_breakpoint 00000001800485b0 f   sfc_debug:sfdb_breakpoints.obj
 0001:00047650       sf_debug_bm_initialize_machine_breakpoint_map 0000000180048650 f   sfc_debug:sfdb_breakpoints.obj
 0001:00047a70       sf_debug_bm_is_a_breakpoint 0000000180048a70 f   sfc_debug:sfdb_breakpoints.obj
 0001:00048050       sf_debug_bm_get_all_breakpoints_in_machine 0000000180049050 f   sfc_debug:sfdb_breakpoints.obj
 0001:00048350       sf_debug_bm_get_all_breakpoints_in_chart 0000000180049350 f   sfc_debug:sfdb_breakpoints.obj
 0001:00049010       sf_debug_bm_initialize_machine 000000018004a010 f   sfc_debug:sfdb_breakpoints.obj
 0001:000490e0       sf_debug_bm_initialize_chart 000000018004a0e0 f   sfc_debug:sfdb_breakpoints.obj
 0001:00049500       sf_debug_sc_terminate      000000018004a500 f   sfc_debug:sfdb_state_consistency.obj
 0001:00049830       sf_debug_sc_is_chart_consistent 000000018004a830 f   sfc_debug:sfdb_state_consistency.obj
 0001:00049ae0       sf_debug_sc_get_consistency_error_info 000000018004aae0 f   sfc_debug:sfdb_state_consistency.obj
 0001:00049f30       sf_debug_tm_terminate      000000018004af30 f   sfc_debug:sfdb_call_stack.obj
 0001:00049ff0       sf_debug_tm_push_chart_instance 000000018004aff0 f   sfc_debug:sfdb_call_stack.obj
 0001:0004a140       sf_debug_tm_pop_chart_instance 000000018004b140 f   sfc_debug:sfdb_call_stack.obj
 0001:0004a1a0       sf_debug_tm_push_trace_node 000000018004b1a0 f   sfc_debug:sfdb_call_stack.obj
 0001:0004a330       sf_debug_tm_pop_trace_node 000000018004b330 f   sfc_debug:sfdb_call_stack.obj
 0001:0004a3b0       sf_debug_tm_get_current_global_trace_index 000000018004b3b0 f   sfc_debug:sfdb_call_stack.obj
 0001:0004a3c0       sf_debug_tm_get_current_local_trace_index 000000018004b3c0 f   sfc_debug:sfdb_call_stack.obj
 0001:0004a3f0       sf_debug_tm_set_cycle_detected_flag 000000018004b3f0 f   sfc_debug:sfdb_call_stack.obj
 0001:0004a430       sf_debug_tm_set_cycle_started_flag 000000018004b430 f   sfc_debug:sfdb_call_stack.obj
 0001:0004a470       sf_debug_tm_get_chart_number_from_stack 000000018004b470 f   sfc_debug:sfdb_call_stack.obj
 0001:0004a670       sf_debug_tm_browse_trace   000000018004b670 f   sfc_debug:sfdb_call_stack.obj
 0001:0004a9b0       sf_debug_cd_initialize_instance 000000018004b9b0 f   sfc_debug:sfdb_cycle_detection.obj
 0001:0004ac60       sf_debug_cd_mark_processed_transition_in_instance 000000018004bc60 f   sfc_debug:sfdb_cycle_detection.obj
 0001:0004ad00       sf_debug_cd_checksum_push  000000018004bd00 f   sfc_debug:sfdb_cycle_detection.obj
 0001:0004afc0       sf_debug_cd_checksum_pop   000000018004bfc0 f   sfc_debug:sfdb_cycle_detection.obj
 0001:0004b030       sf_debug_cd_turn_off_cycle_detection 000000018004c030 f   sfc_debug:sfdb_cycle_detection.obj
 0001:0004b080       sf_debug_cd_terminate      000000018004c080 f   sfc_debug:sfdb_cycle_detection.obj
 0001:0004b2c0       md5_initialize_state       000000018004c2c0 f   sfc_debug:ckmd5.obj
 0001:0004bd30       md5_update_state           000000018004cd30 f   sfc_debug:ckmd5.obj
 0001:0004bd50       md5_get_hash               000000018004cd50 f   sfc_debug:ckmd5.obj
 0001:0004bd80       md5_get_hash_for_a_single_string 000000018004cd80 f   sfc_debug:ckmd5.obj
 0001:0004bde4       mxGetPr                    000000018004cde4 f   libmx:libmx.dll
 0001:0004bdea       mxCreateDoubleScalar       000000018004cdea f   libmx:libmx.dll
 0001:0004bdf0       mxCreateDoubleMatrix_730   000000018004cdf0 f   libmx:libmx.dll
 0001:0004bdf6       mxSetField_730             000000018004cdf6 f   libmx:libmx.dll
 0001:0004bdfc       mxCreateString             000000018004cdfc f   libmx:libmx.dll
 0001:0004be02       mxCreateStructMatrix_730   000000018004ce02 f   libmx:libmx.dll
 0001:0004be08       mxDestroyArray             000000018004ce08 f   libmx:libmx.dll
 0001:0004be0e       mxDuplicateArray           000000018004ce0e f   libmx:libmx.dll
 0001:0004be14       mxGetString_730            000000018004ce14 f   libmx:libmx.dll
 0001:0004be1a       mxIsChar                   000000018004ce1a f   libmx:libmx.dll
 0001:0004be20       mxGetClassID               000000018004ce20 f   libmx:libmx.dll
 0001:0004be26       mxIsNumeric                000000018004ce26 f   libmx:libmx.dll
 0001:0004be2c       mxIsComplex                000000018004ce2c f   libmx:libmx.dll
 0001:0004be32       mxGetN                     000000018004ce32 f   libmx:libmx.dll
 0001:0004be38       mxGetM                     000000018004ce38 f   libmx:libmx.dll
 0001:0004be3e       mxCalloc                   000000018004ce3e f   libmx:libmx.dll
 0001:0004be44       mxGetScalar                000000018004ce44 f   libmx:libmx.dll
 0001:0004be4a       mxIsLogical                000000018004ce4a f   libmx:libmx.dll
 0001:0004be50       mxCreateDoubleMatrix_700   000000018004ce50 f   libmx:libmx.dll
 0001:0004be56       mxFree                     000000018004ce56 f   libmx:libmx.dll
 0001:0004be5c       mxArrayToString            000000018004ce5c f   libmx:libmx.dll
 0001:0004be62       mxCreateCellMatrix_700     000000018004ce62 f   libmx:libmx.dll
 0001:0004be68       mxSetCell_700              000000018004ce68 f   libmx:libmx.dll
 0001:0004be6e       mxGetCell_700              000000018004ce6e f   libmx:libmx.dll
 0001:0004be74       mxGetClassName             000000018004ce74 f   libmx:libmx.dll
 0001:0004be7a       mxSetField_700             000000018004ce7a f   libmx:libmx.dll
 0001:0004be80       mxAddField                 000000018004ce80 f   libmx:libmx.dll
 0001:0004be86       mxGetField_700             000000018004ce86 f   libmx:libmx.dll
 0001:0004be8c       mxGetNumberOfElements      000000018004ce8c f   libmx:libmx.dll
 0001:0004be92       mxIsStruct                 000000018004ce92 f   libmx:libmx.dll
 0001:0004be98       mxIsA                      000000018004ce98 f   libmx:libmx.dll
 0001:0004be9e       mxIsClass                  000000018004ce9e f   libmx:libmx.dll
 0001:0004bea4       mxGetLogicals              000000018004cea4 f   libmx:libmx.dll
 0001:0004beaa       mxIsSparse                 000000018004ceaa f   libmx:libmx.dll
 0001:0004beb0       mxSetFieldByNumber_700     000000018004ceb0 f   libmx:libmx.dll
 0001:0004beb6       mxGetFieldByNumber_700     000000018004ceb6 f   libmx:libmx.dll
 0001:0004bebc       mxGetFieldNameByNumber     000000018004cebc f   libmx:libmx.dll
 0001:0004bec2       mxGetNumberOfFields        000000018004cec2 f   libmx:libmx.dll
 0001:0004bec8       mxCreateStructMatrix_700   000000018004cec8 f   libmx:libmx.dll
 0001:0004bece       mxGetFieldNumber           000000018004cece f   libmx:libmx.dll
 0001:0004bed4       mxIsNaN                    000000018004ced4 f   libmx:libmx.dll
 0001:0004beda       mxIsEmpty                  000000018004ceda f   libmx:libmx.dll
 0001:0004bee0       mxGetData                  000000018004cee0 f   libmx:libmx.dll
 0001:0004bee6       mxGetImagData              000000018004cee6 f   libmx:libmx.dll
 0001:0004beec       mxArrayClassIDName         000000018004ceec f   libmx:libmx.dll
 0001:0004bef2       mxCreateNumericMatrix_700  000000018004cef2 f   libmx:libmx.dll
 0001:0004bef8       mxCreateStructArray_700    000000018004cef8 f   libmx:libmx.dll
 0001:0004befe       mxCalcSingleSubscript_700  000000018004cefe f   libmx:libmx.dll
 0001:0004bf04       mxGetDimensions_700        000000018004cf04 f   libmx:libmx.dll
 0001:0004bf0a       mxGetNumberOfDimensions_700 000000018004cf0a f   libmx:libmx.dll
 0001:0004bf10       mxCreateNumericArray_700   000000018004cf10 f   libmx:libmx.dll
 0001:0004bf16       mxGetElementSize           000000018004cf16 f   libmx:libmx.dll
 0001:0004bf1c       mxCreateStringFromNChars_700 000000018004cf1c f   libmx:libmx.dll
 0001:0004bf22       mxGetString_700            000000018004cf22 f   libmx:libmx.dll
 0001:0004bf28       mxIsLogicalScalarTrue      000000018004cf28 f   libmx:libmx.dll
 0001:0004bf2e       mxCreateLogicalScalar      000000018004cf2e f   libmx:libmx.dll
 0001:0004bf34       mexUnlock                  000000018004cf34 f   libmex:libmex.dll
 0001:0004bf3a       mexIsLocked                000000018004cf3a f   libmex:libmex.dll
 0001:0004bf40       mexWarnMsgTxt              000000018004cf40 f   libmex:libmex.dll
 0001:0004bf46       mexCallMATLAB              000000018004cf46 f   libmex:libmex.dll
 0001:0004bf4c       mexErrMsgTxt               000000018004cf4c f   libmex:libmex.dll
 0001:0004bf52       mexMakeArrayPersistent     000000018004cf52 f   libmex:libmex.dll
 0001:0004bf58       mexSetTrapFlag             000000018004cf58 f   libmex:libmex.dll
 0001:0004bf5e       mexPutVariable             000000018004cf5e f   libmex:libmex.dll
 0001:0004bf64       mexGetVariable             000000018004cf64 f   libmex:libmex.dll
 0001:0004bf6a       mexLock                    000000018004cf6a f   libmex:libmex.dll
 0001:0004bf70       mexMakeMemoryPersistent    000000018004cf70 f   libmex:libmex.dll
 0001:0004bf76       mexFunctionName            000000018004cf76 f   libmex:libmex.dll
 0001:0004bf7c       ssRegisterDataTypeFxpFSlopeFixExpBias 000000018004cf7c f   libfixedpoint:libfixedpoint.dll
 0001:0004bf82       utVSNprintf                000000018004cf82 f   libut:libut.dll
 0001:0004bf88       utCPUtime                  000000018004cf88 f   libut:libut.dll
 0001:0004bf8e       utFree                     000000018004cf8e f   libut:libut.dll
 0001:0004bf94       utMalloc                   000000018004cf94 f   libut:libut.dll
 0001:0004bf9a       muDoubleScalarSin          000000018004cf9a f   libmwmathutil:libmwmathutil.dll
 0001:0004bfa0       muDoubleScalarCos          000000018004cfa0 f   libmwmathutil:libmwmathutil.dll
 0001:0004bfa6       muDoubleScalarAbs          000000018004cfa6 f   libmwmathutil:libmwmathutil.dll
 0001:0004bfac       muDoubleScalarPower        000000018004cfac f   libmwmathutil:libmwmathutil.dll
 0001:0004bfb2       muDoubleScalarRound        000000018004cfb2 f   libmwmathutil:libmwmathutil.dll
 0001:0004bfb8       muDoubleScalarFloor        000000018004cfb8 f   libmwmathutil:libmwmathutil.dll
 0001:0004bfbe       emlrtCreateRootTLS         000000018004cfbe f   libemlrt:libemlrt.dll
 0001:0004bfc4       emlrtDestroyRootTLS        000000018004cfc4 f   libemlrt:libemlrt.dll
 0001:0004bfca       emlrtCheckBuiltInR2012b    000000018004cfca f   libemlrt:libemlrt.dll
 0001:0004bfd0       emlrtCheckVsBuiltInR2012b  000000018004cfd0 f   libemlrt:libemlrt.dll
 0001:0004bfd6       emlrtCheckEnumR2012b       000000018004cfd6 f   libemlrt:libemlrt.dll
 0001:0004bfdc       emlrtCreateEnumR2012b      000000018004cfdc f   libemlrt:libemlrt.dll
 0001:0004bfe2       emlrtGetEnumElementR2009a  000000018004cfe2 f   libemlrt:libemlrt.dll
 0001:0004bfe8       emlrtCreateReference       000000018004cfe8 f   libemlrt:libemlrt.dll
 0001:0004bfee       emlrtImportVsFiArrayR2009b 000000018004cfee f   libemlrt:libemlrt.dll
 0001:0004bff4       emlrtNameCapturePostProcessR2012a 000000018004cff4 f   libemlrt:libemlrt.dll
 0001:0004bffa       emlrtExtractMessageId      000000018004cffa f   libemlrt:libemlrt.dll
 0001:0004c000       emlrtTranslateMessageIDtoLCPstring 000000018004d000 f   libemlrt:libemlrt.dll
 0001:0004c006       emlrtForLoopVectorIsValidR2011b 000000018004d006 f   libemlrt:libemlrt.dll
 0001:0004c00c       emlrtTranslateUTF16MessagetoLCPstring 000000018004d00c f   libemlrt:libemlrt.dll
 0001:0004c012       emlrtGetEnumUnderlyingArrayR2009a 000000018004d012 f   libemlrt:libemlrt.dll
 0001:0004c018       emlrtIsEnumR2009a          000000018004d018 f   libemlrt:libemlrt.dll
 0001:0004c020       __GSHandlerCheckCommon     000000018004d020 f   MSVCRT:gshandler.obj
 0001:0004c084       __GSHandlerCheck           000000018004d084 f   MSVCRT:gshandler.obj
 0001:0004c0a2       strlen                     000000018004d0a2 f   MSVCRT:MSVCR100.dll
 0001:0004c0c0       __security_check_cookie    000000018004d0c0 f   MSVCRT:amdsecgs.obj
 0001:0004c0e0       memset                     000000018004d0e0 f   MSVCRT:MSVCR100.dll
 0001:0004c0e6       malloc                     000000018004d0e6 f   MSVCRT:MSVCR100.dll
 0001:0004c0ec       free                       000000018004d0ec f   MSVCRT:MSVCR100.dll
 0001:0004c0f2       strcmp                     000000018004d0f2 f   MSVCRT:MSVCR100.dll
 0001:0004c0f8       sprintf                    000000018004d0f8 f   MSVCRT:MSVCR100.dll
 0001:0004c0fe       strcat                     000000018004d0fe f   MSVCRT:MSVCR100.dll
 0001:0004c104       memcpy                     000000018004d104 f   MSVCRT:MSVCR100.dll
 0001:0004c10c       NtCurrentTeb               000000018004d10c f i MSVCRT:crtdll.obj
 0001:0004c178       _CRT_INIT                  000000018004d178 f   MSVCRT:crtdll.obj
 0001:0004c510       _DllMainCRTStartup         000000018004d510 f   MSVCRT:crtdll.obj
 0001:0004c54e       strncpy                    000000018004d54e f   MSVCRT:MSVCR100.dll
 0001:0004c570       __chkstk                   000000018004d570 f   MSVCRT:chkstk.obj
 0001:0004c570       _alloca_probe              000000018004d570     MSVCRT:chkstk.obj
 0001:0004c5be       longjmp                    000000018004d5be f   MSVCRT:MSVCR100.dll
 0001:0004c5c4       strncmp                    000000018004d5c4 f   MSVCRT:MSVCR100.dll
 0001:0004c5ca       ceil                       000000018004d5ca f   MSVCRT:MSVCR100.dll
 0001:0004c5d0       strrchr                    000000018004d5d0 f   MSVCRT:MSVCR100.dll
 0001:0004c5d6       _setjmp                    000000018004d5d6 f   MSVCRT:MSVCR100.dll
 0001:0004c5dc       calloc                     000000018004d5dc f   MSVCRT:MSVCR100.dll
 0001:0004c5e2       realloc                    000000018004d5e2 f   MSVCRT:MSVCR100.dll
 0001:0004c5e8       ldexp                      000000018004d5e8 f   MSVCRT:MSVCR100.dll
 0001:0004c5f0       __report_gsfailure         000000018004d5f0 f   MSVCRT:gs_report.obj
 0001:0004c73c       __clean_type_info_names    000000018004d73c f   MSVCRT:tncleanup.obj
 0001:0004c748       _onexit                    000000018004d748 f   MSVCRT:atonexit.obj
 0001:0004c7f8       atexit                     000000018004d7f8 f   MSVCRT:atonexit.obj
 0001:0004c810       _RTC_Initialize            000000018004d810 f   MSVCRT:_initsect_.obj
 0001:0004c848       _RTC_Terminate             000000018004d848 f   MSVCRT:_initsect_.obj
 0001:0004c880       _malloc_crt                000000018004d880 f   MSVCRT:MSVCR100.dll
 0001:0004c890       _ValidateImageBase         000000018004d890 f   MSVCRT:pesect.obj
 0001:0004c8c0       _FindPESection             000000018004d8c0 f   MSVCRT:pesect.obj
 0001:0004c910       _IsNonwritableInCurrentImage 000000018004d910 f   MSVCRT:pesect.obj
 0001:0004c952       _initterm                  000000018004d952 f   MSVCRT:MSVCR100.dll
 0001:0004c958       _initterm_e                000000018004d958 f   MSVCRT:MSVCR100.dll
 0001:0004c95e       _encoded_null              000000018004d95e f   MSVCRT:MSVCR100.dll
 0001:0004c964       _amsg_exit                 000000018004d964 f   MSVCRT:MSVCR100.dll
 0001:0004c96a       __C_specific_handler       000000018004d96a f   MSVCRT:MSVCR100.dll
 0001:0004c970       __CppXcptFilter            000000018004d970 f   MSVCRT:MSVCR100.dll
 0001:0004c978       DllMain                    000000018004d978 f   MSVCRT:dllmain.obj
 0001:0004c99c       __security_init_cookie     000000018004d99c f   MSVCRT:gs_support.obj
 0001:0004ca50       __crt_debugger_hook        000000018004da50 f   MSVCRT:MSVCR100.dll
 0001:0004ca56       __clean_type_info_names_internal 000000018004da56 f   MSVCRT:MSVCR100.dll
 0001:0004ca5c       _unlock                    000000018004da5c f   MSVCRT:MSVCR100.dll
 0001:0004ca62       __dllonexit                000000018004da62 f   MSVCRT:MSVCR100.dll
 0001:0004ca68       _lock                      000000018004da68 f   MSVCRT:MSVCR100.dll
 0001:0004ca6e       EncodePointer              000000018004da6e f   kernel32:KERNEL32.dll
 0001:0004ca74       DecodePointer              000000018004da74 f   kernel32:KERNEL32.dll
 0001:0004ca7a       Sleep                      000000018004da7a f   kernel32:KERNEL32.dll
 0001:0004ca80       TerminateProcess           000000018004da80 f   kernel32:KERNEL32.dll
 0001:0004ca86       GetCurrentProcess          000000018004da86 f   kernel32:KERNEL32.dll
 0001:0004ca8c       UnhandledExceptionFilter   000000018004da8c f   kernel32:KERNEL32.dll
 0001:0004ca92       SetUnhandledExceptionFilter 000000018004da92 f   kernel32:KERNEL32.dll
 0001:0004ca98       IsDebuggerPresent          000000018004da98 f   kernel32:KERNEL32.dll
 0001:0004ca9e       RtlVirtualUnwind           000000018004da9e f   kernel32:KERNEL32.dll
 0001:0004caa4       RtlLookupFunctionEntry     000000018004daa4 f   kernel32:KERNEL32.dll
 0001:0004caaa       RtlCaptureContext          000000018004daaa f   kernel32:KERNEL32.dll
 0001:0004cab0       DisableThreadLibraryCalls  000000018004dab0 f   kernel32:KERNEL32.dll
 0001:0004cab6       QueryPerformanceCounter    000000018004dab6 f   kernel32:KERNEL32.dll
 0001:0004cabc       GetTickCount               000000018004dabc f   kernel32:KERNEL32.dll
 0001:0004cac2       GetCurrentThreadId         000000018004dac2 f   kernel32:KERNEL32.dll
 0001:0004cac8       GetCurrentProcessId        000000018004dac8 f   kernel32:KERNEL32.dll
 0001:0004cace       GetSystemTimeAsFileTime    000000018004dace f   kernel32:KERNEL32.dll
 0002:00000000       __imp_DisableThreadLibraryCalls 000000018004e000     kernel32:KERNEL32.dll
 0002:00000008       __imp_RtlCaptureContext    000000018004e008     kernel32:KERNEL32.dll
 0002:00000010       __imp_RtlLookupFunctionEntry 000000018004e010     kernel32:KERNEL32.dll
 0002:00000018       __imp_RtlVirtualUnwind     000000018004e018     kernel32:KERNEL32.dll
 0002:00000020       __imp_IsDebuggerPresent    000000018004e020     kernel32:KERNEL32.dll
 0002:00000028       __imp_SetUnhandledExceptionFilter 000000018004e028     kernel32:KERNEL32.dll
 0002:00000030       __imp_UnhandledExceptionFilter 000000018004e030     kernel32:KERNEL32.dll
 0002:00000038       __imp_GetCurrentProcess    000000018004e038     kernel32:KERNEL32.dll
 0002:00000040       __imp_TerminateProcess     000000018004e040     kernel32:KERNEL32.dll
 0002:00000048       __imp_Sleep                000000018004e048     kernel32:KERNEL32.dll
 0002:00000050       __imp_DecodePointer        000000018004e050     kernel32:KERNEL32.dll
 0002:00000058       __imp_EncodePointer        000000018004e058     kernel32:KERNEL32.dll
 0002:00000060       __imp_GetTickCount         000000018004e060     kernel32:KERNEL32.dll
 0002:00000068       __imp_GetCurrentThreadId   000000018004e068     kernel32:KERNEL32.dll
 0002:00000070       __imp_GetCurrentProcessId  000000018004e070     kernel32:KERNEL32.dll
 0002:00000078       __imp_GetSystemTimeAsFileTime 000000018004e078     kernel32:KERNEL32.dll
 0002:00000080       __imp_QueryPerformanceCounter 000000018004e080     kernel32:KERNEL32.dll
 0002:00000088       \177KERNEL32_NULL_THUNK_DATA 000000018004e088     kernel32:KERNEL32.dll
 0002:00000090       __imp__onexit              000000018004e090     MSVCRT:MSVCR100.dll
 0002:00000098       __imp__lock                000000018004e098     MSVCRT:MSVCR100.dll
 0002:000000a0       __imp___dllonexit          000000018004e0a0     MSVCRT:MSVCR100.dll
 0002:000000a8       __imp__unlock              000000018004e0a8     MSVCRT:MSVCR100.dll
 0002:000000b0       __imp___clean_type_info_names_internal 000000018004e0b0     MSVCRT:MSVCR100.dll
 0002:000000b8       __imp___crt_debugger_hook  000000018004e0b8     MSVCRT:MSVCR100.dll
 0002:000000c0       __imp___CppXcptFilter      000000018004e0c0     MSVCRT:MSVCR100.dll
 0002:000000c8       __imp___C_specific_handler 000000018004e0c8     MSVCRT:MSVCR100.dll
 0002:000000d0       __imp__amsg_exit           000000018004e0d0     MSVCRT:MSVCR100.dll
 0002:000000d8       __imp__encoded_null        000000018004e0d8     MSVCRT:MSVCR100.dll
 0002:000000e0       __imp__initterm_e          000000018004e0e0     MSVCRT:MSVCR100.dll
 0002:000000e8       __imp__initterm            000000018004e0e8     MSVCRT:MSVCR100.dll
 0002:000000f0       __imp__malloc_crt          000000018004e0f0     MSVCRT:MSVCR100.dll
 0002:000000f8       __imp_ldexp                000000018004e0f8     MSVCRT:MSVCR100.dll
 0002:00000100       __imp_realloc              000000018004e100     MSVCRT:MSVCR100.dll
 0002:00000108       __imp_calloc               000000018004e108     MSVCRT:MSVCR100.dll
 0002:00000110       __imp__setjmp              000000018004e110     MSVCRT:MSVCR100.dll
 0002:00000118       __imp_strrchr              000000018004e118     MSVCRT:MSVCR100.dll
 0002:00000120       __imp_ceil                 000000018004e120     MSVCRT:MSVCR100.dll
 0002:00000128       __imp_strncmp              000000018004e128     MSVCRT:MSVCR100.dll
 0002:00000130       __imp_longjmp              000000018004e130     MSVCRT:MSVCR100.dll
 0002:00000138       __imp_strncpy              000000018004e138     MSVCRT:MSVCR100.dll
 0002:00000140       __imp_memcpy               000000018004e140     MSVCRT:MSVCR100.dll
 0002:00000148       __imp_strcat               000000018004e148     MSVCRT:MSVCR100.dll
 0002:00000150       __imp_sprintf              000000018004e150     MSVCRT:MSVCR100.dll
 0002:00000158       __imp_strcmp               000000018004e158     MSVCRT:MSVCR100.dll
 0002:00000160       __imp_free                 000000018004e160     MSVCRT:MSVCR100.dll
 0002:00000168       __imp_malloc               000000018004e168     MSVCRT:MSVCR100.dll
 0002:00000170       __imp_memset               000000018004e170     MSVCRT:MSVCR100.dll
 0002:00000178       __imp_strlen               000000018004e178     MSVCRT:MSVCR100.dll
 0002:00000180       \177MSVCR100_NULL_THUNK_DATA 000000018004e180     MSVCRT:MSVCR100.dll
 0002:00000188       __imp_emlrtIsEnumR2009a    000000018004e188     libemlrt:libemlrt.dll
 0002:00000190       __imp_emlrtGetEnumUnderlyingArrayR2009a 000000018004e190     libemlrt:libemlrt.dll
 0002:00000198       __imp_emlrtTranslateUTF16MessagetoLCPstring 000000018004e198     libemlrt:libemlrt.dll
 0002:000001a0       __imp_emlrtForLoopVectorIsValidR2011b 000000018004e1a0     libemlrt:libemlrt.dll
 0002:000001a8       __imp_emlrtTranslateMessageIDtoLCPstring 000000018004e1a8     libemlrt:libemlrt.dll
 0002:000001b0       __imp_emlrtExtractMessageId 000000018004e1b0     libemlrt:libemlrt.dll
 0002:000001b8       __imp_emlrtNameCapturePostProcessR2012a 000000018004e1b8     libemlrt:libemlrt.dll
 0002:000001c0       __imp_emlrtCheckBuiltInR2012b 000000018004e1c0     libemlrt:libemlrt.dll
 0002:000001c8       __imp_emlrtDestroyRootTLS  000000018004e1c8     libemlrt:libemlrt.dll
 0002:000001d0       __imp_emlrtCreateRootTLS   000000018004e1d0     libemlrt:libemlrt.dll
 0002:000001d8       __imp_emlrtCheckEnumR2012b 000000018004e1d8     libemlrt:libemlrt.dll
 0002:000001e0       __imp_emlrtCreateEnumR2012b 000000018004e1e0     libemlrt:libemlrt.dll
 0002:000001e8       __imp_emlrtGetEnumElementR2009a 000000018004e1e8     libemlrt:libemlrt.dll
 0002:000001f0       __imp_emlrtCreateReference 000000018004e1f0     libemlrt:libemlrt.dll
 0002:000001f8       __imp_emlrtImportVsFiArrayR2009b 000000018004e1f8     libemlrt:libemlrt.dll
 0002:00000200       __imp_emlrtCheckVsBuiltInR2012b 000000018004e200     libemlrt:libemlrt.dll
 0002:00000208       \177libemlrt_NULL_THUNK_DATA 000000018004e208     libemlrt:libemlrt.dll
 0002:00000210       __imp_ssRegisterDataTypeFxpFSlopeFixExpBias 000000018004e210     libfixedpoint:libfixedpoint.dll
 0002:00000218       \177libfixedpoint_NULL_THUNK_DATA 000000018004e218     libfixedpoint:libfixedpoint.dll
 0002:00000220       __imp_mexFunctionName      000000018004e220     libmex:libmex.dll
 0002:00000228       __imp_mexMakeMemoryPersistent 000000018004e228     libmex:libmex.dll
 0002:00000230       __imp_mexLock              000000018004e230     libmex:libmex.dll
 0002:00000238       __imp_mexPutVariable       000000018004e238     libmex:libmex.dll
 0002:00000240       __imp_mexSetTrapFlag       000000018004e240     libmex:libmex.dll
 0002:00000248       __imp_mexMakeArrayPersistent 000000018004e248     libmex:libmex.dll
 0002:00000250       __imp_mexErrMsgTxt         000000018004e250     libmex:libmex.dll
 0002:00000258       __imp_mexCallMATLAB        000000018004e258     libmex:libmex.dll
 0002:00000260       __imp_mexUnlock            000000018004e260     libmex:libmex.dll
 0002:00000268       __imp_mexIsLocked          000000018004e268     libmex:libmex.dll
 0002:00000270       __imp_mexWarnMsgTxt        000000018004e270     libmex:libmex.dll
 0002:00000278       __imp_mexGetVariable       000000018004e278     libmex:libmex.dll
 0002:00000280       \177libmex_NULL_THUNK_DATA 000000018004e280     libmex:libmex.dll
 0002:00000288       __imp_muDoubleScalarFloor  000000018004e288     libmwmathutil:libmwmathutil.dll
 0002:00000290       __imp_muDoubleScalarAbs    000000018004e290     libmwmathutil:libmwmathutil.dll
 0002:00000298       __imp_muDoubleScalarCos    000000018004e298     libmwmathutil:libmwmathutil.dll
 0002:000002a0       __imp_muDoubleScalarSin    000000018004e2a0     libmwmathutil:libmwmathutil.dll
 0002:000002a8       __imp_muDoubleScalarRound  000000018004e2a8     libmwmathutil:libmwmathutil.dll
 0002:000002b0       __imp_muDoubleScalarPower  000000018004e2b0     libmwmathutil:libmwmathutil.dll
 0002:000002b8       \177libmwmathutil_NULL_THUNK_DATA 000000018004e2b8     libmwmathutil:libmwmathutil.dll
 0002:000002c0       __imp_mxGetN               000000018004e2c0     libmx:libmx.dll
 0002:000002c8       __imp_mxGetPr              000000018004e2c8     libmx:libmx.dll
 0002:000002d0       __imp_mxGetM               000000018004e2d0     libmx:libmx.dll
 0002:000002d8       __imp_mxCalloc             000000018004e2d8     libmx:libmx.dll
 0002:000002e0       __imp_mxGetScalar          000000018004e2e0     libmx:libmx.dll
 0002:000002e8       __imp_mxCreateLogicalScalar 000000018004e2e8     libmx:libmx.dll
 0002:000002f0       __imp_mxIsLogicalScalarTrue 000000018004e2f0     libmx:libmx.dll
 0002:000002f8       __imp_mxGetString_700      000000018004e2f8     libmx:libmx.dll
 0002:00000300       __imp_mxCreateStringFromNChars_700 000000018004e300     libmx:libmx.dll
 0002:00000308       __imp_mxGetElementSize     000000018004e308     libmx:libmx.dll
 0002:00000310       __imp_mxCreateNumericArray_700 000000018004e310     libmx:libmx.dll
 0002:00000318       __imp_mxGetNumberOfDimensions_700 000000018004e318     libmx:libmx.dll
 0002:00000320       __imp_mxGetDimensions_700  000000018004e320     libmx:libmx.dll
 0002:00000328       __imp_mxCalcSingleSubscript_700 000000018004e328     libmx:libmx.dll
 0002:00000330       __imp_mxCreateStructArray_700 000000018004e330     libmx:libmx.dll
 0002:00000338       __imp_mxCreateNumericMatrix_700 000000018004e338     libmx:libmx.dll
 0002:00000340       __imp_mxArrayClassIDName   000000018004e340     libmx:libmx.dll
 0002:00000348       __imp_mxGetImagData        000000018004e348     libmx:libmx.dll
 0002:00000350       __imp_mxGetData            000000018004e350     libmx:libmx.dll
 0002:00000358       __imp_mxIsEmpty            000000018004e358     libmx:libmx.dll
 0002:00000360       __imp_mxIsNaN              000000018004e360     libmx:libmx.dll
 0002:00000368       __imp_mxGetFieldNumber     000000018004e368     libmx:libmx.dll
 0002:00000370       __imp_mxCreateStructMatrix_700 000000018004e370     libmx:libmx.dll
 0002:00000378       __imp_mxGetNumberOfFields  000000018004e378     libmx:libmx.dll
 0002:00000380       __imp_mxGetFieldNameByNumber 000000018004e380     libmx:libmx.dll
 0002:00000388       __imp_mxGetFieldByNumber_700 000000018004e388     libmx:libmx.dll
 0002:00000390       __imp_mxSetFieldByNumber_700 000000018004e390     libmx:libmx.dll
 0002:00000398       __imp_mxIsSparse           000000018004e398     libmx:libmx.dll
 0002:000003a0       __imp_mxGetLogicals        000000018004e3a0     libmx:libmx.dll
 0002:000003a8       __imp_mxIsClass            000000018004e3a8     libmx:libmx.dll
 0002:000003b0       __imp_mxIsA                000000018004e3b0     libmx:libmx.dll
 0002:000003b8       __imp_mxIsStruct           000000018004e3b8     libmx:libmx.dll
 0002:000003c0       __imp_mxGetNumberOfElements 000000018004e3c0     libmx:libmx.dll
 0002:000003c8       __imp_mxGetField_700       000000018004e3c8     libmx:libmx.dll
 0002:000003d0       __imp_mxAddField           000000018004e3d0     libmx:libmx.dll
 0002:000003d8       __imp_mxSetField_700       000000018004e3d8     libmx:libmx.dll
 0002:000003e0       __imp_mxGetClassName       000000018004e3e0     libmx:libmx.dll
 0002:000003e8       __imp_mxGetCell_700        000000018004e3e8     libmx:libmx.dll
 0002:000003f0       __imp_mxSetCell_700        000000018004e3f0     libmx:libmx.dll
 0002:000003f8       __imp_mxCreateCellMatrix_700 000000018004e3f8     libmx:libmx.dll
 0002:00000400       __imp_mxArrayToString      000000018004e400     libmx:libmx.dll
 0002:00000408       __imp_mxFree               000000018004e408     libmx:libmx.dll
 0002:00000410       __imp_mxCreateDoubleMatrix_700 000000018004e410     libmx:libmx.dll
 0002:00000418       __imp_mxIsComplex          000000018004e418     libmx:libmx.dll
 0002:00000420       __imp_mxIsNumeric          000000018004e420     libmx:libmx.dll
 0002:00000428       __imp_mxGetClassID         000000018004e428     libmx:libmx.dll
 0002:00000430       __imp_mxIsChar             000000018004e430     libmx:libmx.dll
 0002:00000438       __imp_mxGetString_730      000000018004e438     libmx:libmx.dll
 0002:00000440       __imp_mxDuplicateArray     000000018004e440     libmx:libmx.dll
 0002:00000448       __imp_mxDestroyArray       000000018004e448     libmx:libmx.dll
 0002:00000450       __imp_mxCreateStructMatrix_730 000000018004e450     libmx:libmx.dll
 0002:00000458       __imp_mxCreateString       000000018004e458     libmx:libmx.dll
 0002:00000460       __imp_mxSetField_730       000000018004e460     libmx:libmx.dll
 0002:00000468       __imp_mxCreateDoubleMatrix_730 000000018004e468     libmx:libmx.dll
 0002:00000470       __imp_mxCreateDoubleScalar 000000018004e470     libmx:libmx.dll
 0002:00000478       __imp_mxIsLogical          000000018004e478     libmx:libmx.dll
 0002:00000480       \177libmx_NULL_THUNK_DATA  000000018004e480     libmx:libmx.dll
 0002:00000488       __imp_utFree               000000018004e488     libut:libut.dll
 0002:00000490       __imp_utCPUtime            000000018004e490     libut:libut.dll
 0002:00000498       __imp_utVSNprintf          000000018004e498     libut:libut.dll
 0002:000004a0       __imp_utMalloc             000000018004e4a0     libut:libut.dll
 0002:000004a8       \177libut_NULL_THUNK_DATA  000000018004e4a8     libut:libut.dll
 0002:000004b0       __xc_a                     000000018004e4b0     MSVCRT:cinitexe.obj
 0002:000004b8       __xc_z                     000000018004e4b8     MSVCRT:cinitexe.obj
 0002:000004c0       __xi_a                     000000018004e4c0     MSVCRT:cinitexe.obj
 0002:000004d0       __xi_z                     000000018004e4d0     MSVCRT:cinitexe.obj
 0002:000004e0       __real@41e56c0c5d800000    000000018004e4e0     c1_model2.obj
 0002:000004e8       __real@41ec98f942200000    000000018004e4e8     c1_model2.obj
 0002:000004f0       __real@41eb7294b6800000    000000018004e4f0     c1_model2.obj
 0002:000004f8       __real@41c6e1e36b000000    000000018004e4f8     c1_model2.obj
 0002:00000500       __real@4024000000000000    000000018004e500     c1_model2.obj
 0002:00000508       __real@3ff0000000000000    000000018004e508     c1_model2.obj
 0002:00000510       __real@4010000000000000    000000018004e510     c1_model2.obj
 0002:00000518       __real@c024000000000000    000000018004e518     c1_model2.obj
 0002:00000520       __real@4034000000000000    000000018004e520     c1_model2.obj
 0002:00000528       __real@bff0000000000000    000000018004e528     c1_model2.obj
 0002:00000530       __mask@@NegDouble@         000000018004e530     c1_model2.obj
 0002:00000540       __real@4000000000000000    000000018004e540     c1_model2.obj
 0002:00000548       __real@4018000000000000    000000018004e548     c1_model2.obj
 0002:00000550       __real@41d224229b000000    000000018004e550     c2_model2.obj
 0002:00000558       __real@41ca49cf07000000    000000018004e558     c2_model2.obj
 0002:00000560       __real@41edc5d6f2200000    000000018004e560     c2_model2.obj
 0002:00000568       __real@41cf5e09bb800000    000000018004e568     c2_model2.obj
 0002:00000570       __real@4008000000000000    000000018004e570     c2_model2.obj
 0002:00000578       __real@4076800000000000    000000018004e578     c2_model2.obj
 0002:00000580       __real@4066800000000000    000000018004e580     c2_model2.obj
 0002:00000588       __real@400921fb54442d18    000000018004e588     c2_model2.obj
 0002:00000590       __real@4014000000000000    000000018004e590     c2_model2.obj
 0002:00000598       __real@4181c9b010000000    000000018004e598     c3_model2.obj
 0002:000005a0       __real@41eb903364c00000    000000018004e5a0     c3_model2.obj
 0002:000005a8       __real@41e7c8d473800000    000000018004e5a8     c3_model2.obj
 0002:000005b0       __real@41de58f173c00000    000000018004e5b0     c3_model2.obj
 0002:000005b8       __real@0000000000000000    000000018004e5b8     c3_model2.obj
 0002:000005c0       __real@bfece47ae147adef    000000018004e5c0     c3_model2.obj
 0002:000005c8       __real@402399999999999a    000000018004e5c8     c3_model2.obj
 0002:000005d0       __real@bf92de5ab277f3fa    000000018004e5d0     c3_model2.obj
 0002:000005d8       __real@3fa2de5ab277f3fa    000000018004e5d8     c3_model2.obj
 0002:000005e0       __real@3f83cf3cf3cf3cd8    000000018004e5e0     c3_model2.obj
 0002:000005e8       __real@3fe3864e0edcd53b    000000018004e5e8     c3_model2.obj
 0002:000005f0       __real@3fb795f15f15f140    000000018004e5f0     c3_model2.obj
 0002:000005f8       __real@3f92de5ab277f3fa    000000018004e5f8     c3_model2.obj
 0002:00000600       __real@3f9f19d803e6a508    000000018004e600     c3_model2.obj
 0002:00000608       __real@41e22382df800000    000000018004e608     c4_model2.obj
 0002:00000610       __real@41d2999117400000    000000018004e610     c4_model2.obj
 0002:00000618       __real@41d2587b08c00000    000000018004e618     c4_model2.obj
 0002:00000620       __real@41e1940521600000    000000018004e620     c4_model2.obj
 0002:00000628       __real@41d31a52a2000000    000000018004e628     c5_model2.obj
 0002:00000630       __real@41edb22426200000    000000018004e630     c5_model2.obj
 0002:00000638       __real@41e802d7ab200000    000000018004e638     c5_model2.obj
 0002:00000640       __real@41c2fa2855800000    000000018004e640     c5_model2.obj
 0002:00000648       __real@401921fb54442d18    000000018004e648     c5_model2.obj
 0002:00000650       __real@3cb0000000000000    000000018004e650     c5_model2.obj
 0002:00000660       DYNAMIC_DIMENSION_DEF      000000018004e660     model2_sfun_registry.obj
 0002:00000680       _ssBadLevel2InputAccessMsg 000000018004e680     model2_sfun_registry.obj
 0002:00000810       _ssBadLevel2DirectFeedMsg  000000018004e810     model2_sfun_registry.obj
 0002:00000950       _ssBadLevel2DirectFeedSolutionMsg 000000018004e950     model2_sfun_registry.obj
 0002:000009c0       _ssBadLevel2ZeroDirectFeedMsg 000000018004e9c0     model2_sfun_registry.obj
 0002:00000b00       _ssBadLevel2ZeroDirectFeedMsg2 000000018004eb00     model2_sfun_registry.obj
 0002:00000be8       __real@41602cbca0000000    000000018004ebe8     model2_sfun_registry.obj
 0002:00000bf0       __real@41e87dec38000000    000000018004ebf0     model2_sfun.obj
 0002:00000bf8       __real@41d81e75e1400000    000000018004ebf8     model2_sfun.obj
 0002:00000c00       __real@41eb980197000000    000000018004ec00     model2_sfun.obj
 0002:00000c08       __real@41e8544726000000    000000018004ec08     model2_sfun.obj
 0002:00000c10       __real@41d02217ddc00000    000000018004ec10     model2_sfun.obj
 0002:00000c18       __real@41d7f86159400000    000000018004ec18     model2_sfun.obj
 0002:00000c20       __real@41be4ec42f000000    000000018004ec20     model2_sfun.obj
 0002:00000c28       __real@41c7620126000000    000000018004ec28     model2_sfun.obj
 0002:00000c30       __real@41e5139dce000000    000000018004ec30     model2_sfun.obj
 0002:00000c38       __real@41ddb0ee44000000    000000018004ec38     model2_sfun.obj
 0002:00000c40       __real@41ef02b955000000    000000018004ec40     model2_sfun.obj
 0002:00000c48       __real@41c94ce182000000    000000018004ec48     model2_sfun.obj
 0002:00000c50       __real@41dc6b0452c00000    000000018004ec50     model2_sfun.obj
 0002:00000c58       __real@41b3dddeee000000    000000018004ec58     model2_sfun.obj
 0002:00000c60       __real@41df2dca27400000    000000018004ec60     model2_sfun.obj
 0002:00000c68       __real@41e8ec8b27600000    000000018004ec68     model2_sfun.obj
 0002:00000c70       ??_C@_00CNPNBAHC@?$AA@     000000018004ec70     sfc_mex:sfc_mex.obj
 0002:00000c74       ??_C@_05DGLCPCBN@?$CFsx?$CFd?$AA@ 000000018004ec74     sfc_mex:sfc_mex.obj
 0002:00000c7c       ??_C@_02DPKJAMEF@?$CFd?$AA@ 000000018004ec7c     sfc_mex:sfc_mex.obj
 0002:00000c80       ??_C@_0CC@DJOAOECF@Unknown?5MATLAB?5error?5encountered@ 000000018004ec80     sfc_mex:sfc_mex.obj
 0002:00000ca8       ??_C@_0CJ@DAIIKGLI@?$CFs?5in?5?$CFs?5should?5never?5be?5called?5@ 000000018004eca8     sfc_mex:sfc_mex.obj
 0002:00000cd8       ??_C@_0CE@ICKLNELB@Error?5calling?5MATLAB?5function?5?8?$CF@ 000000018004ecd8     sfc_mex:sfc_mex.obj
 0002:00000cfc       ??_C@_02DKCKIIND@?$CFs?$AA@ 000000018004ecfc     sfc_mex:sfc_mex.obj
 0002:00000d00       ??_C@_07PHDIELCI@lasterr?$AA@ 000000018004ed00     sfc_mex:sfc_mex.obj
 0002:00000d08       ??_C@_09HKCBALOK@embedded?4?$AA@ 000000018004ed08     sfc_mex:sfc_mex.obj
 0002:00000d14       ??_C@_06BNJCAIGJ@double?$AA@ 000000018004ed14     sfc_mex:sfc_mex.obj
 0002:00000d1c       ??_C@_06EJFMBPJF@single?$AA@ 000000018004ed1c     sfc_mex:sfc_mex.obj
 0002:00000d24       ??_C@_06KKKLBFKN@uint64?$AA@ 000000018004ed24     sfc_mex:sfc_mex.obj
 0002:00000d2c       ??_C@_05DIFFJEPM@int64?$AA@ 000000018004ed2c     sfc_mex:sfc_mex.obj
 0002:00000d34       ??_C@_06PKDKHAMA@uint32?$AA@ 000000018004ed34     sfc_mex:sfc_mex.obj
 0002:00000d3c       ??_C@_05GIMEPBJB@int32?$AA@ 000000018004ed3c     sfc_mex:sfc_mex.obj
 0002:00000d44       ??_C@_06JNNCGBKK@uint16?$AA@ 000000018004ed44     sfc_mex:sfc_mex.obj
 0002:00000d4c       ??_C@_05PCMOAPL@int16?$AA@ 000000018004ed4c     sfc_mex:sfc_mex.obj
 0002:00000d54       ??_C@_05BOGOCLFF@uint8?$AA@ 000000018004ed54     sfc_mex:sfc_mex.obj
 0002:00000d5c       ??_C@_04DCGBOBJJ@int8?$AA@ 000000018004ed5c     sfc_mex:sfc_mex.obj
 0002:00000d64       ??_C@_04KBDJOJNB@?$FL?$CFd?$FN?$AA@ 000000018004ed64     sfc_mex:sfc_mex.obj
 0002:00000d70       ??_C@_0CD@NFPEPNBJ@Cannot?5add?5field?5?$CFs?5to?5struct?5?$CFs@ 000000018004ed70     sfc_mex:sfc_mex.obj
 0002:00000d98       ??_C@_0CF@PLDCCEBG@Cannot?5get?5field?5?$CFs?5from?5struct?5@ 000000018004ed98     sfc_mex:sfc_mex.obj
 0002:00000dc0       ??_C@_0CO@MFJLJCHI@Struct?5array?5?8?$CFs?8?5does?5not?5have?5@ 000000018004edc0     sfc_mex:sfc_mex.obj
 0002:00000df0       ??_C@_0DF@IPGEGIDM@Object?5?8?$CFs?8?5is?5not?5a?5struct?3?5can@ 000000018004edf0     sfc_mex:sfc_mex.obj
 0002:00000e28       ??_C@_0BL@KEKJNNL@MATLAB?5expression?5?8?$CFs?8?5?$CFs?4?$AA@ 000000018004ee28     sfc_mex:sfc_mex.obj
 0002:00000e50       ??_C@_0GH@JOEOEBFA@Size?5mismatch?5for?5?8?$CFs?8?5on?5dimens@ 000000018004ee50     sfc_mex:sfc_mex.obj
 0002:00000eb8       ??_C@_04IAGNFIBA@size?$AA@ 000000018004eeb8     sfc_mex:sfc_mex.obj
 0002:00000ec0       ??_C@_0DN@DNLDLJNN@is?5not?5of?5the?5correct?5class?3?5exp@ 000000018004eec0     sfc_mex:sfc_mex.obj
 0002:00000f00       ??_C@_06POLMGHPK@isreal?$AA@ 000000018004ef00     sfc_mex:sfc_mex.obj
 0002:00000f08       ??_C@_0CC@EDDDCJDC@is?5not?5of?5the?5correct?5complexnes@ 000000018004ef08     sfc_mex:sfc_mex.obj
 0002:00000f30       ??_C@_0CB@POBCEEOP@is?5not?5of?5the?5correct?5sparseness@ 000000018004ef30     sfc_mex:sfc_mex.obj
 0002:00000f58       ??_C@_0CC@JOFDGEBC@is?5not?5of?5the?5correct?5numerictyp@ 000000018004ef58     sfc_mex:sfc_mex.obj
 0002:00000f80       ??_C@_07MIMONDDE@isequal?$AA@ 000000018004ef80     sfc_mex:sfc_mex.obj
 0002:00000f88       ??_C@_0M@NAPEIPJI@numerictype?$AA@ 000000018004ef88     sfc_mex:sfc_mex.obj
 0002:00000f98       ??_C@_0BN@IMIABIKK@is?5not?5of?5the?5correct?5fimath?$AA@ 000000018004ef98     sfc_mex:sfc_mex.obj
 0002:00000fb8       ??_C@_06LJOKAFHF@fimath?$AA@ 000000018004efb8     sfc_mex:sfc_mex.obj
 0002:00000fc0       ??_C@_0EP@IAFBLFNF@Stateflow?5Internal?5Error?3?5?6Error@ 000000018004efc0     sfc_mex:sfc_mex.obj
 0002:00001010       ??_C@_02GFKODMMF@sf?$AA@   000000018004f010     sfc_mex:sfc_mex.obj
 0002:00001018       ??_C@_08MJJBNONC@mxDecode?$AA@ 000000018004f018     sfc_mex:sfc_mex.obj
 0002:00001030       ??_C@_0GH@OOBFJADG@Simulation?5stopped?5due?5to?5out?5of@ 000000018004f030     sfc_mex:sfc_mex.obj
 0002:000010a0       ??_C@_0HC@JODLBNFO@Simulation?5stopped?5due?5to?5size?5m@ 000000018004f0a0     sfc_mex:sfc_mex.obj
 0002:00001120       ??_C@_0HC@PPOAOPGB@Simulation?5stopped?5due?5to?5size?5m@ 000000018004f120     sfc_mex:sfc_mex.obj
 0002:000011a0       ??_C@_0JM@OFMOAAGL@Simulation?5stopped?5due?5to?5size?5m@ 000000018004f1a0     sfc_mex:sfc_mex.obj
 0002:00001240       ??_C@_0KC@ODCGHMPH@Simulation?5stopped?5due?5to?5size?5o@ 000000018004f240     sfc_mex:sfc_mex.obj
 0002:000012f0       ??_C@_0GO@BKNPNGBP@Subscripted?5assignment?5dimension@ 000000018004f2f0     sfc_mex:sfc_mex.obj
 0002:00001360       ??_C@_0DJ@MEDANBMA@Enable?5debugging?5to?5pinpoint?5the@ 000000018004f360     sfc_mex:sfc_mex.obj
 0002:0000139c       ??_C@_01CLKCMJKC@?5?$AA@   000000018004f39c     sfc_mex:sfc_mex.obj
 0002:000013a0       ??_C@_0BAO@DDKKHLGF@Matrix?$CImatrix?$CJ?5subscript?5turned?5@ 000000018004f3a0     sfc_mex:sfc_mex.obj
 0002:000014b0       ??_C@_0BAO@MGKOAKHL@Vector?$CIvector?$CJ?5subscript?5turned?5@ 000000018004f4b0     sfc_mex:sfc_mex.obj
 0002:000015c0       ??_C@_0FA@KAHDAHHI@Cannot?5determine?5the?5exact?5numbe@ 000000018004f5c0     sfc_mex:sfc_mex.obj
 0002:00001610       ??_C@_0FC@HJKNPCCF@Negative?5value?5detected?4?5Enable?5@ 000000018004f610     sfc_mex:sfc_mex.obj
 0002:00001668       ??_C@_0DK@JJKHINMK@Overflow?5detected?4?5Enable?5debugg@ 000000018004f668     sfc_mex:sfc_mex.obj
 0002:000016b0       ??_C@_0EA@POIJMBCP@Divide?5by?5zero?5detected?4?5Enable?5@ 000000018004f6b0     sfc_mex:sfc_mex.obj
 0002:000016f0       ??_C@_0EK@CFEMECLL@Nonconforming?5enum?5value?5detecte@ 000000018004f6f0     sfc_mex:sfc_mex.obj
 0002:00001740       ??_C@_0EE@BPGAOMO@Size?5mismatch?5for?5MATLAB?5express@ 000000018004f740     sfc_mex:sfc_mex.obj
 0002:00001790       ??_C@_0EJ@KLNPHOFG@Dimension?5of?5fixed?5size?5one?5?$CI1?$CJ?5@ 000000018004f790     sfc_mex:sfc_mex.obj
 0002:000017e0       ??_C@_07JFPGMOK@fprintf?$AA@ 000000018004f7e0     sfc_mex:sfc_mex.obj
 0002:000017f0       ??_C@_0FE@EHCFPDEG@In?5MATLAB?5expression?5?8?$CFs?8?0?5field@ 000000018004f7f0     sfc_mex:sfc_mex.obj
 0002:00001848       ??_C@_0DE@IJIFCHLH@In?5MATLAB?5expression?5?8?$CFs?8?0?5field@ 000000018004f848     sfc_mex:sfc_mex.obj
 0002:00001880       ??_C@_0FK@JKPMKGDE@MATLAB?5expression?5?8?$CFs?8?5does?5not?5@ 000000018004f880     sfc_mex:sfc_mex.obj
 0002:000018dc       ??_C@_06PBJBIPGK@struct?$AA@ 000000018004f8dc     sfc_mex:sfc_mex.obj
 0002:000018e8       ??_C@_0O@NFNPPCGN@isfimathlocal?$AA@ 000000018004f8e8     sfc_mex:sfc_mex.obj
 0002:000018f8       ??_C@_0M@MLCGNPLD@embedded?4fi?$AA@ 000000018004f8f8     sfc_mex:sfc_mex.obj
 0002:00001908       ??_C@_0M@EGMNDJHO@?$CFs?5?$DN?5?$CF?415g?6?$AA@ 000000018004f908     sfc_mex:sfc_mex.obj
 0002:00001914       ??_C@_03OFAPEBGM@?$CFs?6?$AA@ 000000018004f914     sfc_mex:sfc_mex.obj
 0002:00001918       ??_C@_0CL@LLBJDFID@failed?5sf_assertion?5in?5?$CFs?5at?5lin@ 000000018004f918     sfc_mex:sfc_mex.obj
 0002:00001950       ??_C@_0EJ@MIHEOKKA@?8?$CFs?8?3?5Array?5with?5number?5of?5dimen@ 000000018004f950     sfc_mex:sfc_mex.obj
 0002:000019a0       ??_C@_09JCLLFAHO@sfc_mex?4c?$AA@ 000000018004f9a0     sfc_mex:sfc_mex.obj
 0002:000019b0       ??_C@_0O@FCFMOEOA@aNumDims?5?$DO?$DN?50?$AA@ 000000018004f9b0     sfc_mex:sfc_mex.obj
 0002:000019c0       ??_C@_0CK@KDIMGCCA@?8?$CFs?8?3?5Sparse?5matrices?5are?5not?5su@ 000000018004f9c0     sfc_mex:sfc_mex.obj
 0002:000019f0       ??_C@_0CI@KBLJAMNB@MATLAB?5expression?5?8?$CFs?8?5is?5not?5nu@ 000000018004f9f0     sfc_mex:sfc_mex.obj
 0002:00001a18       ??_C@_0P@LCMMCGDM@aSrcMx?5?$CB?$DN?5NULL?$AA@ 000000018004fa18     sfc_mex:sfc_mex.obj
 0002:00001a30       ??_C@_0EI@HJNNACGI@Eval?5of?5MATLAB?5expression?5?8?$CFs?8?5i@ 000000018004fa30     sfc_mex:sfc_mex.obj
 0002:00001a78       ??_C@_0DM@BJICAGGK@Stateflow?5currently?5only?5support@ 000000018004fa78     sfc_mex:sfc_mex.obj
 0002:00001ab4       ??_C@_05LAPONLG@false?$AA@ 000000018004fab4     sfc_mex:sfc_mex.obj
 0002:00001abc       ??_C@_03LHCJEHON@nan?$AA@  000000018004fabc     sfc_mex:sfc_mex.obj
 0002:00001ac0       ??_C@_04BHIIPFEC@base?$AA@ 000000018004fac0     sfc_mex:sfc_mex.obj
 0002:00001ac8       ??_C@_06PLMANNP@evalin?$AA@ 000000018004fac8     sfc_mex:sfc_mex.obj
 0002:00001ad0       ??_C@_06GFECGKEO@caller?$AA@ 000000018004fad0     sfc_mex:sfc_mex.obj
 0002:00001ad8       ??_C@_0CM@LOMLNLMC@Invalid?5workspace?5type?5for?5sf_ma@ 000000018004fad8     sfc_mex:sfc_mex.obj
 0002:00001b04       ??_C@_01GBGANLPD@0?$AA@    000000018004fb04     sfc_mex:sfc_mex.obj
 0002:00001b08       ??_C@_06FJKEMHGD@global?$AA@ 000000018004fb08     sfc_mex:sfc_mex.obj
 0002:00001b10       ??_C@_08KHPDDPHG@getfield?$AA@ 000000018004fb10     sfc_mex:sfc_mex.obj
 0002:00001b1c       ??_C@_05LPIJGKJ@Value?$AA@ 000000018004fb1c     sfc_mex:sfc_mex.obj
 0002:00001b28       ??_C@_0BH@HNIMIIFD@Unknown?5workspace?5type?$AA@ 000000018004fb28     sfc_mex:sfc_mex.obj
 0002:00001b40       ??_C@_0DA@IPMLFPJI@MATLAB?5expression?5?8?$CFs?8?5could?5not@ 000000018004fb40     sfc_mex:sfc_mex.obj
 0002:00001b70       ??_C@_0EB@HHPLBHBA@Parameter?5value?5out?5of?5bounds?4?5?$CF@ 000000018004fb70     sfc_mex:sfc_mex.obj
 0002:00001bb8       ??_C@_0CB@DBMOOMDL@Unsupported?5class?5type?5?$CFs?5for?5?$CFs@ 000000018004fbb8     sfc_mex:sfc_mex.obj
 0002:00001be0       ??_C@_0BI@OPNKAIOC@mxIsComplex?$CImxArrayPtr?$CJ?$AA@ 000000018004fbe0     sfc_mex:sfc_mex.obj
 0002:00001c00       ??_C@_0GA@OFLPCMBM@Stateflow?5Runtime?5Warning?3?5Loss?5@ 000000018004fc00     sfc_mex:sfc_mex.obj
 0002:00001c60       __real@3810000000000000    000000018004fc60     sfc_mex:sfc_mex.obj
 0002:00001c68       __real@47efffffe0000000    000000018004fc68     sfc_mex:sfc_mex.obj
 0002:00001c70       __real@c060000000000000    000000018004fc70     sfc_mex:sfc_mex.obj
 0002:00001c78       __real@405fc00000000000    000000018004fc78     sfc_mex:sfc_mex.obj
 0002:00001c80       __real@406fe00000000000    000000018004fc80     sfc_mex:sfc_mex.obj
 0002:00001c88       __real@c0e0000000000000    000000018004fc88     sfc_mex:sfc_mex.obj
 0002:00001c90       __real@40dfffc000000000    000000018004fc90     sfc_mex:sfc_mex.obj
 0002:00001c98       __real@40efffe000000000    000000018004fc98     sfc_mex:sfc_mex.obj
 0002:00001ca0       __real@c1e0000000000000    000000018004fca0     sfc_mex:sfc_mex.obj
 0002:00001ca8       __real@41dfffffffc00000    000000018004fca8     sfc_mex:sfc_mex.obj
 0002:00001cb0       __real@41efffffffe00000    000000018004fcb0     sfc_mex:sfc_mex.obj
 0002:00001cb8       ??_C@_0DO@JIJMNCAH@Class?5mismatch?5for?5variable?5?8?$CFs?8@ 000000018004fcb8     sfc_mex:sfc_mex.obj
 0002:00001cf8       ??_C@_03BBKEAIF@?$DP?$DP?$DP?$AA@ 000000018004fcf8     sfc_mex:sfc_mex.obj
 0002:00001d00       ??_C@_0DE@HICLJLJO@Assignment?5of?5complex?5data?5to?5no@ 000000018004fd00     sfc_mex:sfc_mex.obj
 0002:00001d38       ??_C@_0CF@NHFFCIEB@MATLAB?5function?5?8?$CFs?8?5returned?5NU@ 000000018004fd38     sfc_mex:sfc_mex.obj
 0002:00001d60       ??_C@_0GP@JPKMBIEI@Array?5bounds?5error?5in?5MATLAB?5exp@ 000000018004fd60     sfc_mex:sfc_mex.obj
 0002:00001dd0       ??_C@_0P@FLJFOPHI@pIndex?$FLi?$FN?5?$DO?$DN?50?$AA@ 000000018004fdd0     sfc_mex:sfc_mex.obj
 0002:00001de0       ??_C@_0DI@IGEABFHB@MATLAB?5expression?5?8?$CFs?8?5has?5?$CFd?5di@ 000000018004fde0     sfc_mex:sfc_mex.obj
 0002:00001e18       ??_C@_0L@EFLJKPA@mxArrayPtr?$AA@ 000000018004fe18     sfc_mex:sfc_mex.obj
 0002:00001e28       ??_C@_0CK@FHKKOEPH@numDims?5?$DO?$DN?50?5?$CG?$CG?5numDims?5?$DM?$DN?5MAX_D@ 000000018004fe28     sfc_mex:sfc_mex.obj
 0002:00001e60       ??_C@_0EM@MPIDLJBF@MATLAB?5expression?5?8?$CFs?8?5subscript@ 000000018004fe60     sfc_mex:sfc_mex.obj
 0002:00001eac       ??_C@_04IGKKBJEE@?$DN?$CFg?$DL?$AA@ 000000018004feac     sfc_mex:sfc_mex.obj
 0002:00001eb4       ??_C@_01PKGAHCOL@?$CJ?$AA@ 000000018004feb4     sfc_mex:sfc_mex.obj
 0002:00001eb8       ??_C@_03LEIBKMN@?0?$CFd?$AA@ 000000018004feb8     sfc_mex:sfc_mex.obj
 0002:00001ebc       ??_C@_03IECKINJK@?$CI?$CFd?$AA@ 000000018004febc     sfc_mex:sfc_mex.obj
 0002:00001ec0       ??_C@_0FB@HKJNNBFK@Stateflow?5ml?5type?5data?5?8?$CFs?8?5subs@ 000000018004fec0     sfc_mex:sfc_mex.obj
 0002:00001f18       ??_C@_0CN@HPHHCDPK@Stateflow?5ml?5type?5data?5?8?$CFs?8?5is?5n@ 000000018004ff18     sfc_mex:sfc_mex.obj
 0002:00001f48       ??_C@_0CG@JIOBALFE@Stateflow?5ml?5type?5data?5?8?$CFs?8?5is?5e@ 000000018004ff48     sfc_mex:sfc_mex.obj
 0002:00001f70       ??_C@_0BD@GAHDCPBG@mxArrayPtr?5?$CB?$DN?5NULL?$AA@ 000000018004ff70     sfc_mex:sfc_mex.obj
 0002:00001f88       ??_C@_0CF@HCINMAFF@result?5?$DN?5mxCreateDoubleScalar?$CIva@ 000000018004ff88     sfc_mex:sfc_mex.obj
 0002:00001fb0       ??_C@_0BF@GAJKLFOH@fixpt_lower_mx_array?$AA@ 000000018004ffb0     sfc_mex:sfc_mex.obj
 0002:00001fc8       ??_C@_02FINOOIBE@Cg?$AA@   000000018004ffc8     sfc_mex:sfc_mex.obj
 0002:00001fd0       ??_C@_09GIFEIFFL@sfprivate?$AA@ 000000018004ffd0     sfc_mex:sfc_sf.obj
 0002:00001fe0       ??_C@_0CC@JDELABLI@get_machine_and_chart_file_numbe@ 000000018004ffe0     sfc_mex:sfc_sf.obj
 0002:00002008       ??_C@_0BO@JCKKMPIB@get_sfun_block_specialization?$AA@ 0000000180050008     sfc_mex:sfc_sf.obj
 0002:00002030       ??_C@_0FP@OGBKADON@The?5chart?5name?5?4?4?4?$CFs?5is?5not?5pres@ 0000000180050030     sfc_mex:sfc_sf.obj
 0002:00002090       ??_C@_0FM@KEMGDKHM@The?5chart?5name?5?$CFs?5is?5not?5present@ 0000000180050090     sfc_mex:sfc_sf.obj
 0002:000020f0       ??_C@_0BD@NMFAPBEK@mdlInitializeSizes?$AA@ 00000001800500f0     sfc_mex:sfc_sf.obj
 0002:00002104       ??_C@_06EJFCAODB@sfc_sf?$AA@ 0000000180050104     sfc_mex:sfc_sf.obj
 0002:00002110       ??_C@_0BJ@PBIFPMMD@mdlInitializeSampleTimes?$AA@ 0000000180050110     sfc_mex:sfc_sf.obj
 0002:00002130       ??_C@_0FI@CPPGBPPK@Stateflow?5Internal?5Error?3?5?6Error@ 0000000180050130     sfc_mex:sfc_sf.obj
 0002:00002188       ??_C@_0CN@GACCLMJH@preload_infomatman_for_rtw_optim@ 0000000180050188     sfc_mex:sfc_sf.obj
 0002:000021b8       ??_C@_07CFINJGKH@Private?$AA@ 00000001800501b8     sfc_mex:sfc_sf.obj
 0002:000021c0       ??_C@_0GC@KEKNFKIJ@Stateflow?5Internal?5Error?3?5?6rtw_o@ 00000001800501c0     sfc_mex:sfc_sf.obj
 0002:00002230       ??_C@_0EK@MLFDFPLJ@Stateflow?5Internal?5Error?3?5?6Inter@ 0000000180050230     sfc_mex:sfc_sf.obj
 0002:00002280       ??_C@_0BG@PNKGMGHF@rtw_optimization_info?$AA@ 0000000180050280     sfc_mex:sfc_sf.obj
 0002:00002298       ??_C@_0BA@PHPHFLPF@chart_inlinable?$AA@ 0000000180050298     sfc_mex:sfc_sf.obj
 0002:000022b0       ??_C@_0MB@KGDKCEKF@Stateflow?5Internal?5Error?3?5?6Numbe@ 00000001800502b0     sfc_mex:sfc_sf.obj
 0002:00002380       ??_C@_0GN@DNCJEGHD@Stateflow?5Internal?5Error?3?5?6Error@ 0000000180050380     sfc_mex:sfc_sf.obj
 0002:000023f0       ??_C@_0CA@GOKFFBBO@outputEventsWithMultipleCallers?$AA@ 00000001800503f0     sfc_mex:sfc_sf.obj
 0002:00002410       ??_C@_0LH@NDHODBLK@Stateflow?5Internal?5Error?3?5?6Numbe@ 0000000180050410     sfc_mex:sfc_sf.obj
 0002:000024c8       ??_C@_0BB@GEEDBOGK@reusable_outputs?$AA@ 00000001800504c8     sfc_mex:sfc_sf.obj
 0002:000024e0       ??_C@_0II@FEBCOBGA@Stateflow?5Internal?5Error?3?5?6Numbe@ 00000001800504e0     sfc_mex:sfc_sf.obj
 0002:00002568       ??_C@_0BG@HMMHPAKE@expressionable_inputs?$AA@ 0000000180050568     sfc_mex:sfc_sf.obj
 0002:00002580       ??_C@_0BB@MBBOKNEL@listen_for_ctrlc?$AA@ 0000000180050580     sfc_mex:sfc_sf.obj
 0002:00002594       ??_C@_03LOANPFAI@mex?$AA@  0000000180050594     sfc_mex:sfc_sf.obj
 0002:00002598       ??_C@_07HLHKBCBI@sfdebug?$AA@ 0000000180050598     sfc_mex:sfc_sf.obj
 0002:000025a0       ??_C@_07MFNNEMOJ@drawnow?$AA@ 00000001800505a0     sfc_mex:sfc_sf.obj
 0002:000025a8       __real@3fd3333333333333    00000001800505a8     sfc_mex:sfc_sf.obj
 0002:000025b0       ??_C@_0DG@OJBAPEMA@Internal?5Error?3?5paramsIndex?5?$DN?5?$CFd@ 00000001800505b0     sfc_mex:sfc_sf.obj
 0002:000025f0       ??_C@_0BAI@GPDPHGCD@Cannot?5broadcast?5function?5call?5o@ 00000001800505f0     sfc_mex:sfc_sf.obj
 0002:00002700       ??_C@_0BBC@NGKHEJAF@Cannot?5enable?1disable?5function?5c@ 0000000180050700     sfc_mex:sfc_sf.obj
 0002:00002818       ??_C@_08HDNBGBNP@bitWidth?$AA@ 0000000180050818     sfc_mex:sfc_sf.obj
 0002:00002828       ??_C@_0BG@MDDFDLDC@resolveToSignalObject?$AA@ 0000000180050828     sfc_mex:sfc_sf.obj
 0002:00002840       ??_C@_07KHBFOCMF@varName?$AA@ 0000000180050840     sfc_mex:sfc_sf.obj
 0002:00002848       ??_C@_09LHPHPAOE@isComplex?$AA@ 0000000180050848     sfc_mex:sfc_sf.obj
 0002:00002858       ??_C@_0CM@OAMAJMIG@Failed?5to?5register?5type?5?8?$CFs?8?5wit@ 0000000180050858     sfc_mex:sfc_sf.obj
 0002:00002888       ??_C@_08MLIGMCAH@typeSize?$AA@ 0000000180050888     sfc_mex:sfc_sf.obj
 0002:00002898       ??_C@_0BI@OFLHAMB@vector_of_void_pointers?$AA@ 0000000180050898     sfc_mex:sfc_sf.obj
 0002:000028b0       ??_C@_04NBAGBPGE@bias?$AA@ 00000001800508b0     sfc_mex:sfc_sf.obj
 0002:000028b8       ??_C@_08EGJNFMPO@exponent?$AA@ 00000001800508b8     sfc_mex:sfc_sf.obj
 0002:000028c4       ??_C@_05LAHHKLJI@slope?$AA@ 00000001800508c4     sfc_mex:sfc_sf.obj
 0002:000028d0       ??_C@_0L@EMMELFNN@wordLength?$AA@ 00000001800508d0     sfc_mex:sfc_sf.obj
 0002:000028e0       ??_C@_08EJEJGLGA@isSigned?$AA@ 00000001800508e0     sfc_mex:sfc_sf.obj
 0002:000028ec       ??_C@_05LFJLPLPG@fixpt?$AA@ 00000001800508ec     sfc_mex:sfc_sf.obj
 0002:000028f8       ??_C@_07GOBOHMJA@boolean?$AA@ 00000001800508f8     sfc_mex:sfc_sf.obj
 0002:00002900       ??_C@_04GPMDFGEJ@type?$AA@ 0000000180050900     sfc_mex:sfc_sf.obj
 0002:00002908       ??_C@_0O@EIPJLOAA@extModeUpload?$AA@ 0000000180050908     sfc_mex:sfc_sf.obj
 0002:00002918       __real@43e0000000000000    0000000180050918     sfc_mex:sfc_sf.obj
 0002:00002920       ??_C@_03PLHFFLIH@ptr?$AA@  0000000180050920     sfc_mex:sfc_sf.obj
 0002:00002928       ??_C@_0BC@HMCIKMPA@requiredStackSize?$AA@ 0000000180050928     sfc_mex:sfc_sf.obj
 0002:00002940       ??_C@_0CB@OCGIMAKA@RegisterMachineParentedDataDwork@ 0000000180050940     sfc_mex:sfc_sf.obj
 0002:00002968       ??_C@_0BD@LFPAKDFC@machineDataVarInfo?$AA@ 0000000180050968     sfc_mex:sfc_sf.obj
 0002:00002980       ??_C@_09GAJBGLOB@dworkInfo?$AA@ 0000000180050980     sfc_mex:sfc_sf.obj
 0002:00002990       sf_uint_bits_log2          0000000180050990     sfc_debug:sfcdebug.obj
 0002:000029b0       ??_C@_04GKMJMOBJ@disp?$AA@ 00000001800509b0     sfc_debug:sfcdebug.obj
 0002:000029b8       ??_C@_0DJ@GEKCDEED@Runtime?5size?5mismatch?5for?5dimens@ 00000001800509b8     sfc_debug:sfcdebug.obj
 0002:000029f8       ??_C@_0N@IHFJDIPG@load_machine?$AA@ 00000001800509f8     sfc_debug:sfcdebug.obj
 0002:00002a08       ??_C@_0P@NOFOFJMO@ScriptCacheGet?$AA@ 0000000180050a08     sfc_debug:sfcdebug.obj
 0002:00002a18       ??_C@_0P@HCIIHGKN@simulationTime?$AA@ 0000000180050a18     sfc_debug:sfcdebug.obj
 0002:00002a28       ??_C@_06MBJIKMHL@isSend?$AA@ 0000000180050a28     sfc_debug:sfcdebug.obj
 0002:00002a30       ??_C@_0BC@HKLNGIIJ@messagePortNumber?$AA@ 0000000180050a30     sfc_debug:sfcdebug.obj
 0002:00002a48       ??_C@_07KGNNMFDL@chartId?$AA@ 0000000180050a48     sfc_debug:sfcdebug.obj
 0002:00002a50       ??_C@_0BD@LPIHANBP@State?5Entry?5Action?$AA@ 0000000180050a50     sfc_debug:sfcdebug.obj
 0002:00002a68       ??_C@_0BE@EDAKPKIF@State?5During?5Action?$AA@ 0000000180050a68     sfc_debug:sfcdebug.obj
 0002:00002a80       ??_C@_0BC@FKIGLKJE@State?5Exit?5Action?$AA@ 0000000180050a80     sfc_debug:sfcdebug.obj
 0002:00002a94       ??_C@_04CGFJFPFD@none?$AA@ 0000000180050a94     sfc_debug:sfcdebug.obj
 0002:00002aa0       ??_C@_0BD@JMJALEKH@Transition?5Trigger?$AA@ 0000000180050aa0     sfc_debug:sfcdebug.obj
 0002:00002ab8       ??_C@_0BO@JIGLNAHF@Transition?5Guarding?5Condition?$AA@ 0000000180050ab8     sfc_debug:sfcdebug.obj
 0002:00002ad8       ??_C@_0BB@ODEGBFLN@Condition?5Action?$AA@ 0000000180050ad8     sfc_debug:sfcdebug.obj
 0002:00002af0       ??_C@_0BC@EPJNNAPA@Transition?5Action?$AA@ 0000000180050af0     sfc_debug:sfcdebug.obj
 0002:00002b08       ??_C@_0DI@JGHJOLLJ@INTERNAL?5ERROR?4?5Failed?5assertion@ 0000000180050b08     sfc_debug:sfcdebug.obj
 0002:00002b40       ??_C@_01EEMJAFIK@?6?$AA@   0000000180050b40     sfc_debug:sfcdebug.obj
 0002:00002b48       ??_C@_0P@HHNBJNJA@context_string?$AA@ 0000000180050b48     sfc_debug:sfcdebug.obj
 0002:00002b58       ??_C@_0BN@PMGOFJAJ@shouldAlwaysHonorBreakpoints?$AA@ 0000000180050b58     sfc_debug:sfcdebug.obj
 0002:00002b78       ??_C@_0DL@EPKGPGLC@?$CImachine?9?$DOdataCompInfo?4fixedPoin@ 0000000180050b78     sfc_debug:sfcdebug.obj
 0002:00002bb8       ??_C@_0L@GJHMCDGO@sfcdebug?4c?$AA@ 0000000180050bb8     sfc_debug:sfcdebug.obj
 0002:00002bc8       ??_C@_0DE@CBCLKIAM@?$CImachine?9?$DOdataCompInfo?4isComplex@ 0000000180050bc8     sfc_debug:sfcdebug.obj
 0002:00002c00       ??_C@_0DP@MDOJBFKE@?$CIinstance?9?$DOdataCompInfo?4fixedPoi@ 0000000180050c00     sfc_debug:sfcdebug.obj
 0002:00002c40       ??_C@_0DM@KFHGIBMB@?$CIinstance?9?$DOdataCompInfo?4fixedPoi@ 0000000180050c40     sfc_debug:sfcdebug.obj
 0002:00002c80       ??_C@_0DF@IIPJPBAH@?$CIinstance?9?$DOdataCompInfo?4isComple@ 0000000180050c80     sfc_debug:sfcdebug.obj
 0002:00002cb8       ??_C@_0DA@OMEPAHNH@?$CIchart?9?$DOdata?4outputDataFlags?$CJ?4le@ 0000000180050cb8     sfc_debug:sfcdebug.obj
 0002:00002ce8       ??_C@_0CP@JPBDBJBK@?$CIchart?9?$DOdata?4inputDataFlags?$CJ?4len@ 0000000180050ce8     sfc_debug:sfcdebug.obj
 0002:00002d18       ??_C@_03KGJNKAJD@lic?$AA@  0000000180050d18     sfc_debug:sfcdebug.obj
 0002:00002d1c       ??_C@_04PNMLDJAE@ense?$AA@ 0000000180050d1c     sfc_debug:sfcdebug.obj
 0002:00002d28       ??_C@_0L@ONMHLBPB@?$CFs?$CFs?$CFslbox?$AA@ 0000000180050d28     sfc_debug:sfcdebug.obj
 0002:00002d34       ??_C@_04CLOJJEIM@fixe?$AA@ 0000000180050d34     sfc_debug:sfcdebug.obj
 0002:00002d3c       ??_C@_05CBHOIFCP@t_too?$AA@ 0000000180050d3c     sfc_debug:sfcdebug.obj
 0002:00002d44       ??_C@_06MGFNEDEJ@d_poin?$AA@ 0000000180050d44     sfc_debug:sfcdebug.obj
 0002:00002d4c       ??_C@_04HDOCAJNK@?$CFs?$CFs?$AA@ 0000000180050d4c     sfc_debug:sfcdebug.obj
 0002:00002d54       ??_C@_04BJBBOLDM@chec?$AA@ 0000000180050d54     sfc_debug:sfcdebug.obj
 0002:00002d5c       ??_C@_04KNBDLPKC@kout?$AA@ 0000000180050d5c     sfc_debug:sfcdebug.obj
 0002:00002d68       ??_C@_0BA@FKECJMCE@active_instance?$AA@ 0000000180050d68     sfc_debug:sfcdebug.obj
 0002:00002d78       ??_C@_0DD@MJFCMKPO@transCnt?5?$DN?$DN?5instance?9?$DOcvToolIds?4@ 0000000180050d78     sfc_debug:sfcdebug.obj
 0002:00002db0       ??_C@_0CO@MONEMJEL@stateCnt?5?$DN?$DN?5instance?9?$DOcvToolIds?4@ 0000000180050db0     sfc_debug:sfcdebug.obj
 0002:00002de0       ??_C@_0O@ELHBEDAD@init_debugger?$AA@ 0000000180050de0     sfc_debug:sfcdebug.obj
 0002:00002df0       ??_C@_0L@PKOFOKNN@break_here?$AA@ 0000000180050df0     sfc_debug:sfcdebug.obj
 0002:00002e00       ??_C@_0BH@KBPHNGCH@script?4activeMachineId?$AA@ 0000000180050e00     sfc_debug:sfcdebug.obj
 0002:00002e18       ??_C@_03KCHOJKKI@set?$AA@  0000000180050e18     sfc_debug:sfcdebug.obj
 0002:00002e20       ??_C@_0DD@PKMAPHBF@?$CImachine?9?$DOdata?4watchFlags?$CJ?4lengt@ 0000000180050e20     sfc_debug:sfcdebug.obj
 0002:00002e60       ??_C@_0FE@KLPHIMDI@?$CIchart?9?$DOdata?4watchFlags?$CJ?4length?$DO@ 0000000180050e60     sfc_debug:sfcdebug.obj
 0002:00002eb8       ??_C@_0BO@GFBPGEIL@bufferSizeGet?5?$DN?$DN?5totalSizeGet?$AA@ 0000000180050eb8     sfc_debug:sfcdebug.obj
 0002:00002ed8       ??_C@_0BO@BEEPOEDP@bufferSizeSet?5?$DN?$DN?5totalSizeSet?$AA@ 0000000180050ed8     sfc_debug:sfcdebug.obj
 0002:00002ef8       ??_C@_0BG@NNAKOPEK@get_script_line_count?$AA@ 0000000180050ef8     sfc_debug:sfcdebug.obj
 0002:00002f10       ??_C@_0BJ@GADAHKGG@temporal_threshold_error?$AA@ 0000000180050f10     sfc_debug:sfcdebug.obj
 0002:00002f30       ??_C@_0BK@KABIOMCC@transition_conflict_error?$AA@ 0000000180050f30     sfc_debug:sfcdebug.obj
 0002:00002f50       ??_C@_0BK@HLPANOPJ@state_inconsistency_error?$AA@ 0000000180050f50     sfc_debug:sfcdebug.obj
 0002:00002f70       ??_C@_0BA@PCEGODO@cycle_detection?$AA@ 0000000180050f70     sfc_debug:sfcdebug.obj
 0002:00002f80       ??_C@_0CP@HMOGACCG@Simulation?5stopped?5due?5to?5out?5of@ 0000000180050f80     sfc_debug:sfcdebug.obj
 0002:00002fb0       ??_C@_0BD@LFFFHIJG@array_bounds_error?$AA@ 0000000180050fb0     sfc_debug:sfcdebug.obj
 0002:00002fc8       ??_C@_0O@IENBAMNA@runtime_error?$AA@ 0000000180050fc8     sfc_debug:sfcdebug.obj
 0002:00002fd8       ??_C@_0CC@EDKHOOPE@Call?5to?5MATLAB?5function?5aborted?3@ 0000000180050fd8     sfc_debug:sfcdebug.obj
 0002:00003000       ??_C@_0DJ@JBGHLJFL@Simulation?5stopped?5due?5to?5size?5m@ 0000000180051000     sfc_debug:sfcdebug.obj
 0002:00003040       ??_C@_0DJ@EAKPCDBG@Simulation?5stopped?5due?5to?5size?5m@ 0000000180051040     sfc_debug:sfcdebug.obj
 0002:00003080       ??_C@_0GD@BJCLDBKO@Simulation?5stopped?5due?5to?5size?5m@ 0000000180051080     sfc_debug:sfcdebug.obj
 0002:000030f0       ??_C@_0GJ@OHCOIONE@Simulation?5stopped?5due?5to?5size?5o@ 00000001800510f0     sfc_debug:sfcdebug.obj
 0002:00003160       ??_C@_0DF@BOMHHCNB@Subscripted?5assignment?5dimension@ 0000000180051160     sfc_debug:sfcdebug.obj
 0002:000031a0       ??_C@_0NG@BOPFGKBO@Matrix?$CImatrix?$CJ?5subscript?5turned?5@ 00000001800511a0     sfc_debug:sfcdebug.obj
 0002:00003280       ??_C@_0HE@FPEPCMDA@Matrix?$CImatrix?$CJ?5subscript?5turned?5@ 0000000180051280     sfc_debug:sfcdebug.obj
 0002:00003300       ??_C@_0NG@MLJIHJIH@Vector?$CIvector?$CJ?5subscript?5turned?5@ 0000000180051300     sfc_debug:sfcdebug.obj
 0002:000033e0       ??_C@_0HE@BHPDCNDF@Vector?$CIvector?$CJ?5subscript?5turned?5@ 00000001800513e0     sfc_debug:sfcdebug.obj
 0002:00003458       ??_C@_0BL@HKADOJK@Unknown?5runtime?5error?3?5?$CFs?4?$AA@ 0000000180051458     sfc_debug:sfcdebug.obj
 0002:00003478       ??_C@_0P@FIEIFKHH@dataName?$CB?$DNNULL?$AA@ 0000000180051478     sfc_debug:sfcdebug.obj
 0002:00003488       ??_C@_0BC@JKFOPCCM@non_integer_error?$AA@ 0000000180051488     sfc_debug:sfcdebug.obj
 0002:000034a0       ??_C@_09MMCAMPEC@nan_error?$AA@ 00000001800514a0     sfc_debug:sfcdebug.obj
 0002:000034b0       ??_C@_0P@KGNBONIG@negative_error?$AA@ 00000001800514b0     sfc_debug:sfcdebug.obj
 0002:000034c0       ??_C@_0DA@OEGHOJFO@Simulation?5stopped?5due?5to?5divide@ 00000001800514c0     sfc_debug:sfcdebug.obj
 0002:000034f0       ??_C@_0P@DAGNNBKM@overflow_error?$AA@ 00000001800514f0     sfc_debug:sfcdebug.obj
 0002:00003500       ??_C@_0BF@IEPBJJM@divide_by_zero_error?$AA@ 0000000180051500     sfc_debug:sfcdebug.obj
 0002:00003518       ??_C@_0BC@CNIFONOF@unsafe_enum_error?$AA@ 0000000180051518     sfc_debug:sfcdebug.obj
 0002:00003530       ??_C@_0BA@GLGJGIFO@data_loss_error?$AA@ 0000000180051530     sfc_debug:sfcdebug.obj
 0002:00003540       ??_C@_0BB@LFNCDKMF@data_range_error?$AA@ 0000000180051540     sfc_debug:sfcdebug.obj
 0002:00003560       ??_C@_0FA@OJFHKNAF@Simulation?5stopped?5because?5a?5dat@ 0000000180051560     sfc_debug:sfcdebug.obj
 0002:000035b0       ??_C@_0BI@LLOJJCOG@read_before_write_error?$AA@ 00000001800515b0     sfc_debug:sfcdebug.obj
 0002:000035c8       __real@4059000000000000    00000001800515c8     sfc_debug:sfcdebug.obj
 0002:000035d0       ??_C@_0EL@LHLCBPON@objectType?$DN?$DNEVENT_OBJECT?5?$CG?$CG?5obje@ 00000001800515d0     sfc_debug:sfcdebug.obj
 0002:00003620       ??_C@_0CK@BGKNIJPH@Simulation?5stopped?5due?5to?5infini@ 0000000180051620     sfc_debug:sfcdebug.obj
 0002:00003650       ??_C@_0BC@OGHOEIO@draw_message_post?$AA@ 0000000180051650     sfc_debug:sfcdebug.obj
 0002:00003670       ??_C@_0EC@EKMLJIIP@strlen?$CItargetName?$CJ?$DMsizeof?$CIdebugI@ 0000000180051670     sfc_debug:sfcdebug.obj
 0002:000036c0       ??_C@_0EE@LPPEFNLK@strlen?$CImachineName?$CJ?$DMsizeof?$CIdebug@ 00000001800516c0     sfc_debug:sfcdebug.obj
 0002:00003708       ??_C@_0BO@OEBODAF@charts?9?$DOlength?5?$DM?5charts?9?$DOsize?$AA@ 0000000180051708     sfc_debug:sfcdebug.obj
 0002:00003728       ??_C@_0P@NDNBPAGO@charts?9?$DOsize?$DO0?$AA@ 0000000180051728     sfc_debug:sfcdebug.obj
 0002:00003738       ??_C@_09DACGJFPO@terminate?$AA@ 0000000180051738     sfc_debug:sfcdebug.obj
 0002:00003748       ??_C@_0BH@BOIPOAMD@currentoptionalinteger?$AA@ 0000000180051748     sfc_debug:sfc_api.obj
 0002:00003760       ??_C@_0BI@KDFLIHKN@currentstatementcontext?$AA@ 0000000180051760     sfc_debug:sfc_api.obj
 0002:00003778       ??_C@_0BF@CJJCNHOP@currentstatementinfo?$AA@ 0000000180051778     sfc_debug:sfc_api.obj
 0002:00003790       ??_C@_0BA@EEHAMBBL@currentcoverage?$AA@ 0000000180051790     sfc_debug:sfc_api.obj
 0002:000037a0       ??_C@_0BD@CPIGBEHM@currentmachinename?$AA@ 00000001800517a0     sfc_debug:sfc_api.obj
 0002:000037b8       ??_C@_0BF@MPNFKHIK@currentmachinenumber?$AA@ 00000001800517b8     sfc_debug:sfc_api.obj
 0002:000037d0       ??_C@_0BB@EAGFPGEG@currentmachineid?$AA@ 00000001800517d0     sfc_debug:sfc_api.obj
 0002:000037e8       ??_C@_0P@LDEJFJKJ@simulationtime?$AA@ 00000001800517e8     sfc_debug:sfc_api.obj
 0002:000037f8       ??_C@_0P@CKMPNBM@currenttagtype?$AA@ 00000001800517f8     sfc_debug:sfc_api.obj
 0002:00003808       ??_C@_0BH@EMAALFDO@currentactiveeventtype?$AA@ 0000000180051808     sfc_debug:sfc_api.obj
 0002:00003820       ??_C@_0BF@BIDFPCPF@currentactiveeventid?$AA@ 0000000180051820     sfc_debug:sfc_api.obj
 0002:00003838       ??_C@_0BA@LAPNNELA@currentobjectid?$AA@ 0000000180051838     sfc_debug:sfc_api.obj
 0002:00003848       ??_C@_0BB@LLJHHKEI@currenteventtype?$AA@ 0000000180051848     sfc_debug:sfc_api.obj
 0002:00003860       ??_C@_0BC@BDADCDEL@currentobjecttype?$AA@ 0000000180051860     sfc_debug:sfc_api.obj
 0002:00003878       ??_C@_0BH@HDHFFKCN@currentisminortimestep?$AA@ 0000000180051878     sfc_debug:sfc_api.obj
 0002:00003890       ??_C@_0BG@PKFJEKLL@currentinstancehandle?$AA@ 0000000180051890     sfc_debug:sfc_api.obj
 0002:000038a8       ??_C@_0BG@GJFHKFBJ@currentinstancenumber?$AA@ 00000001800518a8     sfc_debug:sfc_api.obj
 0002:000038c0       ??_C@_0BD@DKAMMHEE@currentchartnumber?$AA@ 00000001800518c0     sfc_debug:sfc_api.obj
 0002:000038d8       ??_C@_0P@EANFOHCD@currentchartid?$AA@ 00000001800518d8     sfc_debug:sfc_api.obj
 0002:000038e8       ??_C@_0CC@JILMFDHL@extract_message_post_receive_inf@ 00000001800518e8     sfc_debug:sfc_api.obj
 0002:0000390c       ??_C@_06IMFOKBKF@assign?$AA@ 000000018005190c     sfc_debug:sfc_api.obj
 0002:00003918       ??_C@_0BC@CMFMGKCG@set_script_cv_ids?$AA@ 0000000180051918     sfc_debug:sfc_api.obj
 0002:00003930       ??_C@_0BE@ONNFKBAC@set_instance_cv_ids?$AA@ 0000000180051930     sfc_debug:sfc_api.obj
 0002:00003948       ??_C@_0BE@CDIKCKCD@get_instance_handle?$AA@ 0000000180051948     sfc_debug:sfc_api.obj
 0002:00003960       ??_C@_0BE@GPEMFILK@break_between_times?$AA@ 0000000180051960     sfc_debug:sfc_api.obj
 0002:00003978       ??_C@_0O@KGONFDDG@active_states?$AA@ 0000000180051978     sfc_debug:sfc_api.obj
 0002:00003988       ??_C@_0BC@LHALNGBC@state_consistency?$AA@ 0000000180051988     sfc_debug:sfc_api.obj
 0002:000039a0       ??_C@_0BE@JNDELHDH@transition_conflict?$AA@ 00000001800519a0     sfc_debug:sfc_api.obj
 0002:000039b8       ??_C@_0L@ECJAFPAF@data_range?$AA@ 00000001800519b8     sfc_debug:sfc_api.obj
 0002:000039c8       ??_C@_0O@NAKDKJME@select_charts?$AA@ 00000001800519c8     sfc_debug:sfc_api.obj
 0002:000039d8       ??_C@_0N@KLDBDGD@select_chart?$AA@ 00000001800519d8     sfc_debug:sfc_api.obj
 0002:000039e8       ??_C@_0O@NJPMKBAC@set_animation?$AA@ 00000001800519e8     sfc_debug:sfc_api.obj
 0002:000039f8       ??_C@_09FLOFKLFE@set_watch?$AA@ 00000001800519f8     sfc_debug:sfc_api.obj
 0002:00003a08       ??_C@_0O@ECMAEPOC@get_script_id?$AA@ 0000000180051a08     sfc_debug:sfc_api.obj
 0002:00003a18       ??_C@_0BJ@KFGPCNG@query_script_breakpoints?$AA@ 0000000180051a18     sfc_debug:sfc_api.obj
 0002:00003a38       ??_C@_0BJ@CAAHLJNF@clear_script_breakpoints?$AA@ 0000000180051a38     sfc_debug:sfc_api.obj
 0002:00003a58       ??_C@_0BH@BAILBHDP@add_script_breakpoints?$AA@ 0000000180051a58     sfc_debug:sfc_api.obj
 0002:00003a70       ??_C@_0BH@KAKDDELG@set_script_breakpoints?$AA@ 0000000180051a70     sfc_debug:sfc_api.obj
 0002:00003a88       ??_C@_0BE@GAGDJPKA@set_eml_breakpoints?$AA@ 0000000180051a88     sfc_debug:sfc_api.obj
 0002:00003aa0       ??_C@_0BA@NHOBHLLJ@set_breakpoints?$AA@ 0000000180051aa0     sfc_debug:sfc_api.obj
 0002:00003ab0       ??_C@_0BF@GOGOODJG@break_on_state_entry?$AA@ 0000000180051ab0     sfc_debug:sfc_api.obj
 0002:00003ac8       ??_C@_0BJ@FPOJDFBP@break_on_event_broadcast?$AA@ 0000000180051ac8     sfc_debug:sfc_api.obj
 0002:00003ae8       ??_C@_0BF@FJBBAFJ@break_on_chart_entry?$AA@ 0000000180051ae8     sfc_debug:sfc_api.obj
 0002:00003b00       ??_C@_0N@MHHEHLAI@browse_trace?$AA@ 0000000180051b00     sfc_debug:sfc_api.obj
 0002:00003b10       ??_C@_0BB@JEAJMJMI@consistency_info?$AA@ 0000000180051b10     sfc_debug:sfc_api.obj
 0002:00003b24       ??_C@_04MLCEENPJ@whos?$AA@ 0000000180051b24     sfc_debug:sfc_api.obj
 0002:00003b30       ??_C@_0L@LNIDAIN@watch_data?$AA@ 0000000180051b30     sfc_debug:sfc_api.obj
 0002:00003b40       ??_C@_0M@JEJMEFEG@browse_data?$AA@ 0000000180051b40     sfc_debug:sfc_api.obj
 0002:00003b4c       ??_C@_03HNAFFKGA@get?$AA@  0000000180051b4c     sfc_debug:sfc_api.obj
 0002:00003b50       ??_C@_05LBOHBHFK@close?$AA@ 0000000180051b50     sfc_debug:sfc_api.obj
 0002:00003b58       ??_C@_0BM@ICDFOOIE@set_disable_all_breakpoints?$AA@ 0000000180051b58     sfc_debug:sfc_api.obj
 0002:00003b78       ??_C@_0BP@IBIALPGH@disable_all_breakpoints_and_go?$AA@ 0000000180051b78     sfc_debug:sfc_api.obj
 0002:00003b98       ??_C@_0BJ@BOMFHJBD@is_array_bounds_detected?$AA@ 0000000180051b98     sfc_debug:sfc_api.obj
 0002:00003bb8       ??_C@_0BC@LKOOEAAH@is_cycle_detected?$AA@ 0000000180051bb8     sfc_debug:sfc_api.obj
 0002:00003bd0       ??_C@_0P@NIBPNIDJ@stop_debugging?$AA@ 0000000180051bd0     sfc_debug:sfc_api.obj
 0002:00003be0       ??_C@_05ELPHFHOI@break?$AA@ 0000000180051be0     sfc_debug:sfc_api.obj
 0002:00003be8       ??_C@_06PLELHCEK@resume?$AA@ 0000000180051be8     sfc_debug:sfc_api.obj
 0002:00003bf0       ??_C@_08OKABEMKO@step_out?$AA@ 0000000180051bf0     sfc_debug:sfc_api.obj
 0002:00003c00       ??_C@_09CDNMPCHO@step_over?$AA@ 0000000180051c00     sfc_debug:sfc_api.obj
 0002:00003c0c       ??_C@_02KPEDIMCA@go?$AA@   0000000180051c0c     sfc_debug:sfc_api.obj
 0002:00003c10       ??_C@_0P@MMCMIGPN@debugger_alive?$AA@ 0000000180051c10     sfc_debug:sfc_api.obj
 0002:00003c20       ??_C@_0N@GHFBLJDM@machine_load?$AA@ 0000000180051c20     sfc_debug:sfc_api.obj
 0002:00003c30       ??_C@_0O@GIBFCMLF@chart_visible?$AA@ 0000000180051c30     sfc_debug:sfc_api.obj
 0002:00004050       ??_C@_05JEMLEKKA@found?$AA@ 0000000180052050     sfc_debug:sfc_api.obj
 0002:00004058       ??_C@_09KFNMLIAN@sfc_api?4c?$AA@ 0000000180052058     sfc_debug:sfc_api.obj
 0002:00004068       ??_C@_0N@PFBMDOLG@sf_debug_api?$AA@ 0000000180052068     sfc_debug:sfc_api.obj
 0002:00004078       ??_C@_07KEAHHHLK@nrhs?$DN?$DN3?$AA@ 0000000180052078     sfc_debug:sfc_api.obj
 0002:00004080       ??_C@_0BC@HOOMKBNL@mxIsChar?$CIprhs?$FL0?$FN?$CJ?$AA@ 0000000180052080     sfc_debug:sfc_api.obj
 0002:00004098       ??_C@_0BF@NGLAGMHA@mxIsNumeric?$CIprhs?$FL0?$FN?$CJ?$AA@ 0000000180052098     sfc_debug:sfc_api.obj
 0002:000040b0       ??_C@_07IEIELKNG@nrhs?$DO?$DN1?$AA@ 00000001800520b0     sfc_debug:sfc_api.obj
 0002:000040b8       ??_C@_07LNBMEGPL@nrhs?$DN?$DN2?$AA@ 00000001800520b8     sfc_debug:sfc_api.obj
 0002:000040c0       ??_C@_0BD@DPNMCCEH@nrhs?$DN?$DN1?5?$HM?$HM?5nrhs?$DN?$DN3?$AA@ 00000001800520c0     sfc_debug:sfc_api.obj
 0002:000040d8       ??_C@_09FKOBHCEN@nrhs?5?$DN?$DN?52?$AA@ 00000001800520d8     sfc_debug:sfc_api.obj
 0002:000040e8       ??_C@_09EMKMAIDO@nrhs?5?$DM?$DN?51?$AA@ 00000001800520e8     sfc_debug:sfc_api.obj
 0002:000040f8       ??_C@_07OLEGOBHN@nrhs?$DN?$DN4?$AA@ 00000001800520f8     sfc_debug:sfc_api.obj
 0002:00004100       ??_C@_07PCFNNADM@nrhs?$DN?$DN5?$AA@ 0000000180052100     sfc_debug:sfc_api.obj
 0002:00004108       ??_C@_07JGDBBFDI@nrhs?$DN?$DN1?$AA@ 0000000180052108     sfc_debug:sfc_api.obj
 0002:00004110       ??_C@_07KBNAPCKL@nlhs?$DN?$DN1?$AA@ 0000000180052110     sfc_debug:sfc_api.obj
 0002:00004118       ??_C@_08PAMHJLPB@statusOk?$AA@ 0000000180052118     sfc_debug:sfc_api.obj
 0002:00004128       ??_C@_07NJHAIDPP@nrhs?$DN?$DN6?$AA@ 0000000180052128     sfc_debug:sfc_api.obj
 0002:00004130       ??_C@_0L@EMNHGDGL@nlhs?$DN?$DNnrhs?$AA@ 0000000180052130     sfc_debug:sfc_api.obj
 0002:00004140       ??_C@_0P@BLJCAHMG@select_objects?$AA@ 0000000180052140     sfc_debug:sfdb_animation.obj
 0002:00004150       ??_C@_06CFKBOPCI@states?$AA@ 0000000180052150     sfc_debug:sfdb_animation.obj
 0002:00004158       ??_C@_0P@KHIIFDEG@instanceHandle?$AA@ 0000000180052158     sfc_debug:sfdb_animation.obj
 0002:00004168       ??_C@_0P@DEIGLMOE@instanceNumber?$AA@ 0000000180052168     sfc_debug:sfdb_animation.obj
 0002:00004178       ??_C@_0N@HACOJJON@instanceName?$AA@ 0000000180052178     sfc_debug:sfdb_animation.obj
 0002:00004188       ??_C@_0M@BFNIOHPP@chartNumber?$AA@ 0000000180052188     sfc_debug:sfdb_animation.obj
 0002:00004198       ??_C@_09KMHJEGJ@chartName?$AA@ 0000000180052198     sfc_debug:sfdb_animation.obj
 0002:000041a4       ??_C@_06OOECHJN@charts?$AA@ 00000001800521a4     sfc_debug:sfdb_animation.obj
 0002:000041b0       ??_C@_0O@LOMGGENK@machineNumber?$AA@ 00000001800521b0     sfc_debug:sfdb_animation.obj
 0002:000041c0       ??_C@_09OOJCKABH@machineId?$AA@ 00000001800521c0     sfc_debug:sfdb_animation.obj
 0002:000041d0       ??_C@_0M@OCOCCFP@machineName?$AA@ 00000001800521d0     sfc_debug:sfdb_animation.obj
 0002:000041e0       ??_C@_0CN@CCJEMGOM@?$CIinstance?9?$DOsm?4statePack?$CJ?4length?$DO@ 00000001800521e0     sfc_debug:sfdb_animation.obj
 0002:00004210       ??_C@_0DC@DKAJIDPA@?$CIinstance?9?$DOsm?4transitionPack?$CJ?4le@ 0000000180052210     sfc_debug:sfdb_animation.obj
 0002:00004248       ??_C@_0BB@EGGLBLCL@sfdb_animation?4c?$AA@ 0000000180052248     sfc_debug:sfdb_animation.obj
 0002:00004260       ??_C@_0BB@GDGPIGLB@cv_model_enabled?$AA@ 0000000180052260     sfc_debug:cv_sfinterface.obj
 0002:00004278       ??_C@_09DDDNMFIJ@get_param?$AA@ 0000000180052278     sfc_debug:cv_sfinterface.obj
 0002:00004288       ??_C@_0L@BODNDPN@CoverageId?$AA@ 0000000180052288     sfc_debug:cv_sfinterface.obj
 0002:00004294       ??_C@_05IEGMLJMJ@exist?$AA@ 0000000180052294     sfc_debug:cv_sfinterface.obj
 0002:0000429c       ??_C@_02DDEKINOE@cv?$AA@   000000018005229c     sfc_debug:cv_sfinterface.obj
 0002:000042a0       __real@4082c00000000000    00000001800522a0     sfc_debug:cv_sfinterface.obj
 0002:000042a8       ??_C@_0O@HGNEKHDK@MatlabVersion?$AA@ 00000001800522a8     sfc_debug:cv_sfinterface.obj
 0002:000042b8       ??_C@_0M@IIAIMKFO@status?5?$DN?$DN?50?$AA@ 00000001800522b8     sfc_debug:cv_sfinterface.obj
 0002:000042c8       ??_C@_0BB@ENEMAMMG@cv_sfinterface?4c?$AA@ 00000001800522c8     sfc_debug:cv_sfinterface.obj
 0002:000042e0       ??_C@_0CC@JMPFGLON@mxGetNumberOfElements?$CIplhs?$FL3?$FN?$CJ?$DN?$DN@ 00000001800522e0     sfc_debug:cv_sfinterface.obj
 0002:00004308       ??_C@_0P@MCDOIOOF@plhs?$FL3?$FN?5?$CB?$DNNULL?$AA@ 0000000180052308     sfc_debug:cv_sfinterface.obj
 0002:00004318       ??_C@_0P@HAMLCBNF@len?$DM?$DNdataCount?$AA@ 0000000180052318     sfc_debug:cv_sfinterface.obj
 0002:00004328       ??_C@_0BA@FJOAHKLL@len?$DN?$DNtransCount?$AA@ 0000000180052328     sfc_debug:cv_sfinterface.obj
 0002:00004338       ??_C@_0BA@JELAJLGI@len?$DN?$DNstateCount?$AA@ 0000000180052338     sfc_debug:cv_sfinterface.obj
 0002:00004348       ??_C@_0BC@NEFBEIHN@InitChartInstance?$AA@ 0000000180052348     sfc_debug:cv_sfinterface.obj
 0002:0000435c       ??_C@_04MMALOABH@cvsf?$AA@ 000000018005235c     sfc_debug:cv_sfinterface.obj
 0002:00004368       ??_C@_0L@GIEKKEHF@InitScript?$AA@ 0000000180052368     sfc_debug:cv_sfinterface.obj
 0002:00004378       ??_C@_08DNDOONPK@sigrange?$AA@ 0000000180052378     sfc_debug:cv_sfinterface.obj
 0002:00004388       ??_C@_0O@KGBGEHIN@MetricEnabled?$AA@ 0000000180052388     sfc_debug:cv_sfinterface.obj
 0002:00004398       ??_C@_0BC@NKPEPJDJ@chart?9?$DOchartId?$CB?$DN0?$AA@ 0000000180052398     sfc_debug:cv_sfinterface.obj
 0002:000043ac       ??_C@_02GMHACPFF@?$CFu?$AA@ 00000001800523ac     sfc_debug:sfdb_data_browse.obj
 0002:000043b0       ??_C@_02NJPGOMH@?$CFf?$AA@ 00000001800523b0     sfc_debug:sfdb_data_browse.obj
 0002:000043b8       ??_C@_0BD@PCGIEHBF@sfdb_data_browse?4c?$AA@ 00000001800523b8     sfc_debug:sfdb_data_browse.obj
 0002:000043d0       __real@c2a2309ce53fffcd    00000001800523d0     sfc_debug:sfdb_data_browse.obj
 0002:000043d8       ??_C@_0CK@JKBFHDPL@result?5?$DN?5mxCreateDoubleMatrix?$CI1?0@ 00000001800523d8     sfc_debug:sfdb_data_browse.obj
 0002:00004408       ??_C@_0DK@FJDNFCNK@result?5?$DN?5mxCreateDoubleMatrix?$CI1?0@ 0000000180052408     sfc_debug:sfdb_data_browse.obj
 0002:00004448       ??_C@_0DL@OAKPHGJG@result?5?$DN?5mxCreateDoubleMatrix?$CI1?0@ 0000000180052448     sfc_debug:sfdb_data_browse.obj
 0002:00004488       ??_C@_0N@MNGHGLAH@isFixedPoint?$AA@ 0000000180052488     sfc_debug:sfdb_data_browse.obj
 0002:00004498       ??_C@_06DLEPGFEF@format?$AA@ 0000000180052498     sfc_debug:sfdb_data_browse.obj
 0002:000044a0       ??_C@_05MFEJDJP@value?$AA@ 00000001800524a0     sfc_debug:sfdb_data_browse.obj
 0002:000044a8       ??_C@_05DCCHDMEJ@scope?$AA@ 00000001800524a8     sfc_debug:sfdb_data_browse.obj
 0002:000044b0       ??_C@_02EGCJHIOB@id?$AA@   00000001800524b0     sfc_debug:sfdb_data_browse.obj
 0002:000044b4       ??_C@_04PJOLNDGD@data?$AA@ 00000001800524b4     sfc_debug:sfdb_data_browse.obj
 0002:000044bc       ??_C@_06LIBBAANI@len?$DN?$DN1?$AA@ 00000001800524bc     sfc_debug:sfdb_handle_management.obj
 0002:000044c8       ??_C@_0BJ@IEEBKHME@sfdb_handle_management?4c?$AA@ 00000001800524c8     sfc_debug:sfdb_handle_management.obj
 0002:000044e4       ??_C@_06NCGDPKCC@handle?$AA@ 00000001800524e4     sfc_debug:sfdb_handle_management.obj
 0002:000044f0       ??_C@_0BP@NAIIDBEE@parentObjectType?$DN?$DNCHART_OBJECT?$AA@ 00000001800524f0     sfc_debug:sfdb_handle_management.obj
 0002:00004510       ??_C@_0BD@JOOOIBOE@get_machine_option?$AA@ 0000000180052510     sfc_debug:sfdb_handle_management.obj
 0002:00004528       ??_C@_0P@KGLBOIAN@get_machine_id?$AA@ 0000000180052528     sfc_debug:sfdb_handle_management.obj
 0002:00004538       ??_C@_0N@OBHOGINE@get_chart_id?$AA@ 0000000180052538     sfc_debug:sfdb_handle_management.obj
 0002:00004548       ??_C@_0BD@DICPGEAM@register_sfunction?$AA@ 0000000180052548     sfc_debug:sfdb_handle_management.obj
 0002:00004560       ??_C@_0BF@FENDCECP@get_chart_visibility?$AA@ 0000000180052560     sfc_debug:sfdb_handle_management.obj
 0002:00004578       ??_C@_0BM@FDGIEMLG@objectProperties?9?$DOlength?$DN?$DN0?$AA@ 0000000180052578     sfc_debug:sfdb_handle_management.obj
 0002:00004598       ??_C@_0CE@KBPIEDGG@?$CI?$CI?$CKobjectProperties?$CJ?$CJ?4length?$DOnum@ 0000000180052598     sfc_debug:sfdb_handle_management.obj
 0002:000045c0       ??_C@_0CA@HFGDFECP@len?5?$DN?$DN?5objectProperties?9?$DOlength?$AA@ 00000001800525c0     sfc_debug:sfdb_handle_management.obj
 0002:000045e0       ??_C@_0P@BHPLCHGJ@get_object_ids?$AA@ 00000001800525e0     sfc_debug:sfdb_handle_management.obj
 0002:000045f0       ??_C@_0BK@IFFOLHLE@objectProperties?9?$DOsize?$DN?$DN0?$AA@ 00000001800525f0     sfc_debug:sfdb_handle_management.obj
 0002:00004610       ??_C@_0BO@GFLPGHHM@len?5?$DO?$DN?5objectProperties?9?$DOsize?$AA@ 0000000180052610     sfc_debug:sfdb_handle_management.obj
 0002:00004630       ??_C@_05GFHEIIDD@event?$AA@ 0000000180052630     sfc_debug:sfdb_handle_management.obj
 0002:00004638       ??_C@_0M@BFOKCNLA@debug?4watch?$AA@ 0000000180052638     sfc_debug:sfdb_handle_management.obj
 0002:00004648       ??_C@_0CE@OILCPIFA@machine?4debug?4disableAllBreakpoi@ 0000000180052648     sfc_debug:sfdb_handle_management.obj
 0002:00004670       ??_C@_0DA@JMDEGBBH@machine?4debug?4runTimeCheck?4state@ 0000000180052670     sfc_debug:sfdb_handle_management.obj
 0002:000046a0       ??_C@_0CP@IPHIMGFA@machine?4debug?4runTimeCheck?4trans@ 00000001800526a0     sfc_debug:sfdb_handle_management.obj
 0002:000046d0       ??_C@_0CL@LENOAAKD@machine?4debug?4runTimeCheck?4dataR@ 00000001800526d0     sfc_debug:sfdb_handle_management.obj
 0002:00004700       ??_C@_0CK@MBMAMLGE@machine?4debug?4runTimeCheck?4cycle@ 0000000180052700     sfc_debug:sfdb_handle_management.obj
 0002:00004730       ??_C@_0CA@EGLALCO@machine?4debug?4animation?4enabled?$AA@ 0000000180052730     sfc_debug:sfdb_handle_management.obj
 0002:00004750       ??_C@_0L@KGLELNDP@transition?$AA@ 0000000180052750     sfc_debug:sfdb_handle_management.obj
 0002:0000475c       ??_C@_06JKPEPHBG@dst?4id?$AA@ 000000018005275c     sfc_debug:sfdb_handle_management.obj
 0002:00004764       ??_C@_05HDBKIDE@state?$AA@ 0000000180052764     sfc_debug:sfdb_handle_management.obj
 0002:00004770       ??_C@_0EG@MFIKDIJB@strlen?$CImachineName?$CJ?5?$DM?5sizeof?$CIdeb@ 0000000180052770     sfc_debug:sfdb_handle_management.obj
 0002:000047b8       ??_C@_0BM@DEONCIBN@stackPtr?5?$DN?$DN?5symScope?9?$DOstack?$AA@ 00000001800527b8     sfc_debug:sfdb_symbol_scope.obj
 0002:000047d8       ??_C@_0BE@PIKAOBFK@sfdb_symbol_scope?4c?$AA@ 00000001800527d8     sfc_debug:sfdb_symbol_scope.obj
 0002:000047f0       ??_C@_0BP@MJGDIBPE@symScope?9?$DOcurrentScope?5?$CB?$DN?5NULL?$AA@ 00000001800527f0     sfc_debug:sfdb_symbol_scope.obj
 0002:00004810       ??_C@_0BP@OCHHKFJA@symScope?9?$DOcurrentScope?5?$DN?$DN?5NULL?$AA@ 0000000180052810     sfc_debug:sfdb_symbol_scope.obj
 0002:00004830       ??_C@_0BM@KCIKANPA@symScope?9?$DOstack?5?$DN?$DN?5stackPtr?$AA@ 0000000180052830     sfc_debug:sfdb_symbol_scope.obj
 0002:00004850       ??_C@_0DK@NCABFGD@symScope?9?$DOcurrentScope?5?$CB?$DN?5NULL?5?$CG@ 0000000180052850     sfc_debug:sfdb_symbol_scope.obj
 0002:00004890       ??_C@_0DL@LDAGNOEE@currScope?9?$DOsymbolTable?4count?5?$DM?5c@ 0000000180052890     sfc_debug:sfdb_symbol_scope.obj
 0002:000048d0       ??_C@_0BK@PHCKFGOO@numDims?5?$DM?$DN?5MAX_DIMENSIONS?$AA@ 00000001800528d0     sfc_debug:sfdb_symbol_scope.obj
 0002:000048f0       ??_C@_0EE@CLCFNFKP@Warning?3?5Can?8t?5display?5value?4?5Nu@ 00000001800528f0     sfc_debug:sfdb_symbol_scope.obj
 0002:00004938       ??_C@_0BB@NPDHFBEP@valuePtr?5?$CB?$DN?5NULL?$AA@ 0000000180052938     sfc_debug:sfdb_symbol_scope.obj
 0002:00004950       ??_C@_0O@CHHKIHJE@chart?5?$CB?$DN?5NULL?$AA@ 0000000180052950     sfc_debug:sfdb_symbol_scope.obj
 0002:00004960       ??_C@_0CB@PFGINMAC@dataInfo?5?$CG?$CG?5data?5?$CG?$CG?5st?5?$CG?$CG?5i?5?$DO?$DN?50@ 0000000180052960     sfc_debug:sfdb_symbol_scope.obj
 0002:00004990       ??_C@_0PC@ENOLANEC@Cannot?5change?5value?5of?5?8?$CFs?8?5at?5d@ 0000000180052990     sfc_debug:sfdb_symbol_scope.obj
 0002:00004a84       ??_C@_02PINLEBJB@fi?$AA@   0000000180052a84     sfc_debug:sfdb_symbol_scope.obj
 0002:00004a88       ??_C@_06FDANFAAP@sim2fi?$AA@ 0000000180052a88     sfc_debug:sfdb_symbol_scope.obj
 0002:00004a90       ??_C@_0N@PGGMJAFA@Out?5of?5Scope?$AA@ 0000000180052a90     sfc_debug:sfdb_symbol_scope.obj
 0002:00004aa0       ??_C@_0BF@KFJKGDMO@Unrecognized?5symbol?4?$AA@ 0000000180052aa0     sfc_debug:sfdb_symbol_scope.obj
 0002:00004ab8       ??_C@_0L@INJGJGAM@?5?$CIcomplex?$CJ?$AA@ 0000000180052ab8     sfc_debug:sfdb_symbol_scope.obj
 0002:00004ac8       ??_C@_0O@MHGLJPE@fixpt?5?$CI?$CFs?5?$CFs?$CJ?$AA@ 0000000180052ac8     sfc_debug:sfdb_symbol_scope.obj
 0002:00004ad8       ??_C@_08FFKICJMO@?$CFs?$CL?$CF?416g?$AA@ 0000000180052ad8     sfc_debug:sfdb_symbol_scope.obj
 0002:00004ae4       ??_C@_02EPPPECEI@SI?$AA@   0000000180052ae4     sfc_debug:sfdb_symbol_scope.obj
 0002:00004ae8       ??_C@_09LKFGHFHF@?$CFs?$CI2?$FO?$CFd?$CJ?$CK?$AA@ 0000000180052ae8     sfc_debug:sfdb_symbol_scope.obj
 0002:00004af4       ??_C@_06KJECHFDK@?$CF?416g?$CK?$AA@ 0000000180052af4     sfc_debug:sfdb_symbol_scope.obj
 0002:00004afc       ??_C@_02IJPJFKDF@ml?$AA@   0000000180052afc     sfc_debug:sfdb_symbol_scope.obj
 0002:00004b00       ??_C@_0O@NJOJHIHO@logical?5array?$AA@ 0000000180052b00     sfc_debug:sfdb_symbol_scope.obj
 0002:00004b10       ??_C@_0L@MDMKKENH@char?5array?$AA@ 0000000180052b10     sfc_debug:sfdb_symbol_scope.obj
 0002:00004b20       ??_C@_0N@DGCGENML@uint32?5array?$AA@ 0000000180052b20     sfc_debug:sfdb_symbol_scope.obj
 0002:00004b30       ??_C@_0M@OFFMACLB@int32?5array?$AA@ 0000000180052b30     sfc_debug:sfdb_symbol_scope.obj
 0002:00004b40       ??_C@_0N@JMJKGLLH@uint16?5array?$AA@ 0000000180052b40     sfc_debug:sfdb_symbol_scope.obj
 0002:00004b50       ??_C@_0M@EPOACEMN@int16?5array?$AA@ 0000000180052b50     sfc_debug:sfdb_symbol_scope.obj
 0002:00004b60       ??_C@_0M@NOMKNEGI@uint8?5array?$AA@ 0000000180052b60     sfc_debug:sfdb_symbol_scope.obj
 0002:00004b70       ??_C@_0L@HCHBFFAP@int8?5array?$AA@ 0000000180052b70     sfc_debug:sfdb_symbol_scope.obj
 0002:00004b80       ??_C@_0N@KIFCNMIF@single?5array?$AA@ 0000000180052b80     sfc_debug:sfdb_symbol_scope.obj
 0002:00004b90       ??_C@_0N@OFOFFBCM@double?5array?$AA@ 0000000180052b90     sfc_debug:sfdb_symbol_scope.obj
 0002:00004ba0       ??_C@_04BIAHPGJI@?$CFdx1?$AA@ 0000000180052ba0     sfc_debug:sfdb_symbol_scope.obj
 0002:00004ba8       ??_C@_04CADIJHHA@?$CFd?9D?$AA@ 0000000180052ba8     sfc_debug:sfdb_symbol_scope.obj
 0002:00004bb0       ??_C@_05JIPKJPMI@?$CFs?$CFdx?$AA@ 0000000180052bb0     sfc_debug:sfdb_symbol_scope.obj
 0002:00004bb8       ??_C@_0BH@GLACFBLP@?5?$CIvariable?5sized?3?5MAX?5?$AA@ 0000000180052bb8     sfc_debug:sfdb_symbol_scope.obj
 0002:00004bd0       ??_C@_07CIFAGBMG@unknown?$AA@ 0000000180052bd0     sfc_debug:sfdb_symbol_scope.obj
 0002:00004bd8       ??_C@_05ENKANFLO@class?$AA@ 0000000180052bd8     sfc_debug:sfdb_symbol_scope.obj
 0002:00004be0       ??_C@_05FBJAGGIG@bytes?$AA@ 0000000180052be0     sfc_debug:sfdb_symbol_scope.obj
 0002:00004be8       ??_C@_04MEMAJGDJ@name?$AA@ 0000000180052be8     sfc_debug:sfdb_symbol_scope.obj
 0002:00004bf0       ??_C@_0CF@NELOECCL@coverageVector?9?$DOlength?$DOcoverageI@ 0000000180052bf0     sfc_debug:sfdb_coverage.obj
 0002:00004c18       ??_C@_0BA@CBMBNBFB@sfdb_coverage?4c?$AA@ 0000000180052c18     sfc_debug:sfdb_coverage.obj
 0002:00004c28       ??_C@_0DN@FAEHHEAM@?$CIscript?9?$DObm?4breakpoints?$CJ?4length?$DO@ 0000000180052c28     sfc_debug:sfdb_breakpoints.obj
 0002:00004c68       ??_C@_0BD@BABBLJFB@sfdb_breakpoints?4c?$AA@ 0000000180052c68     sfc_debug:sfdb_breakpoints.obj
 0002:00004c80       ??_C@_0P@IGHKOFID@get_script_bps?$AA@ 0000000180052c80     sfc_debug:sfdb_breakpoints.obj
 0002:00004c90       ??_C@_0BA@ICOJJJDD@get_all_scripts?$AA@ 0000000180052c90     sfc_debug:sfdb_breakpoints.obj
 0002:00004ca0       ??_C@_0EI@EDDFBGGP@?$CIunsigned?5int?$CJ?$CImxGetM?$CIplhs?$FL0?$FN?$CJ?5?$CK@ 0000000180052ca0     sfc_debug:sfdb_breakpoints.obj
 0002:00004ce8       ??_C@_0BE@PNADEEOB@get_eml_line_counts?$AA@ 0000000180052ce8     sfc_debug:sfdb_breakpoints.obj
 0002:00004d00       ??_C@_0CC@JPCLBDPC@mxGetNumberOfElements?$CIplhs?$FL0?$FN?$CJ?$DN?$DN@ 0000000180052d00     sfc_debug:sfdb_breakpoints.obj
 0002:00004d28       ??_C@_0P@EHJHKHLL@get_global_bps?$AA@ 0000000180052d28     sfc_debug:sfdb_breakpoints.obj
 0002:00004d38       ??_C@_0CE@NADCJCF@?$CIchart?9?$DObm?4chart?$FLtagType?$FN?$CJ?4lengt@ 0000000180052d38     sfc_debug:sfdb_breakpoints.obj
 0002:00004d60       ??_C@_0CP@JOFCMAIP@?$CIchart?9?$DObm?4state?$FLtagType?$FN?$CJ?4lengt@ 0000000180052d60     sfc_debug:sfdb_breakpoints.obj
 0002:00004d90       ??_C@_0DE@GNPGALGC@?$CIchart?9?$DObm?4transition?$FLtagType?$FN?$CJ?4@ 0000000180052d90     sfc_debug:sfdb_breakpoints.obj
 0002:00004dc8       ??_C@_0DB@PCFIPMMH@?$CImachine?9?$DObm?4event?$FLtagType?$FN?$CJ?4len@ 0000000180052dc8     sfc_debug:sfdb_breakpoints.obj
 0002:00004e00       ??_C@_0CP@FENPPAOI@?$CIchart?9?$DObm?4event?$FLtagType?$FN?$CJ?4lengt@ 0000000180052e00     sfc_debug:sfdb_breakpoints.obj
 0002:00004e30       ??_C@_0CH@EKAIFOIL@numCols?5?$DN?$DN?5TOTAL_EVENT_BREAKPOIN@ 0000000180052e30     sfc_debug:sfdb_breakpoints.obj
 0002:00004e58       ??_C@_0CA@BECONEOF@numRows?5?$DN?$DN?5machine?9?$DOevent?4count?$AA@ 0000000180052e58     sfc_debug:sfdb_breakpoints.obj
 0002:00004e78       ??_C@_07HCEBIAFG@get_bps?$AA@ 0000000180052e78     sfc_debug:sfdb_breakpoints.obj
 0002:00004e80       ??_C@_0BI@LFGGAIIJ@?$CIbps?$CJ?4length?$DObreakPoint?$AA@ 0000000180052e80     sfc_debug:sfdb_breakpoints.obj
 0002:00004e98       ??_C@_0N@CNOINHPD@numCols?5?$DN?$DN?51?$AA@ 0000000180052e98     sfc_debug:sfdb_breakpoints.obj
 0002:00004ea8       ??_C@_0M@NNPJEEAE@get_eml_bps?$AA@ 0000000180052ea8     sfc_debug:sfdb_breakpoints.obj
 0002:00004eb8       ??_C@_0BO@CDPAPHEM@numRows?5?$DN?$DN?5chart?9?$DOevent?4count?$AA@ 0000000180052eb8     sfc_debug:sfdb_breakpoints.obj
 0002:00004ed8       ??_C@_0CM@FFJFHNEO@numCols?5?$DN?$DN?5TOTAL_TRANSITION_BREA@ 0000000180052ed8     sfc_debug:sfdb_breakpoints.obj
 0002:00004f08       ??_C@_0CD@IOIMPEBN@numRows?5?$DN?$DN?5chart?9?$DOtransition?4cou@ 0000000180052f08     sfc_debug:sfdb_breakpoints.obj
 0002:00004f30       ??_C@_0CH@JEIBGOOJ@numCols?5?$DN?$DN?5TOTAL_STATE_BREAKPOIN@ 0000000180052f30     sfc_debug:sfdb_breakpoints.obj
 0002:00004f58       ??_C@_0BO@BIKNFPLB@numRows?5?$DN?$DN?5chart?9?$DOstate?4count?$AA@ 0000000180052f58     sfc_debug:sfdb_breakpoints.obj
 0002:00004f78       ??_C@_0CH@BNLENKGD@numCols?5?$DN?$DN?5TOTAL_CHART_BREAKPOIN@ 0000000180052f78     sfc_debug:sfdb_breakpoints.obj
 0002:00004fa0       ??_C@_0N@MEFFBAFI@numRows?5?$DN?$DN?51?$AA@ 0000000180052fa0     sfc_debug:sfdb_breakpoints.obj
 0002:00004fb0       ??_C@_0BJ@BLHBHILO@sfdb_state_consistency?4c?$AA@ 0000000180052fb0     sfc_debug:sfdb_state_consistency.obj
 0002:00004fd0       ??_C@_09LHFAMEGK@errorType?$AA@ 0000000180052fd0     sfc_debug:sfdb_state_consistency.obj
 0002:00004fe0       ??_C@_08DLAIKNBK@objectId?$AA@ 0000000180052fe0     sfc_debug:sfdb_state_consistency.obj
 0002:00004ff0       ??_C@_0L@GODCDFEF@objectType?$AA@ 0000000180052ff0     sfc_debug:sfdb_state_consistency.obj
 0002:00005000       ??_C@_0L@CCGENCKP@errorStack?$AA@ 0000000180053000     sfc_debug:sfdb_state_consistency.obj
 0002:00005010       ??_C@_0O@PPHMCEKO@cycleDetected?$AA@ 0000000180053010     sfc_debug:sfdb_call_stack.obj
 0002:00005020       ??_C@_0N@MGKMJLEK@cycleStarted?$AA@ 0000000180053020     sfc_debug:sfdb_call_stack.obj
 0002:00005030       ??_C@_07BNCILGOA@tagType?$AA@ 0000000180053030     sfc_debug:sfdb_call_stack.obj
 0002:00005038       ??_C@_0L@POKIGEMP@eventScope?$AA@ 0000000180053038     sfc_debug:sfdb_call_stack.obj
 0002:00005048       ??_C@_0M@LKJJPLIC@traceVector?$AA@ 0000000180053048     sfc_debug:sfdb_call_stack.obj
 0002:00005060       ??_C@_0EC@MGCLADPL@?$CIinstance?9?$DOcycleDetection?4transi@ 0000000180053060     sfc_debug:sfdb_cycle_detection.obj
 0002:000050a8       ??_C@_0BH@ELCAAKDD@sfdb_cycle_detection?4c?$AA@ 00000001800530a8     sfc_debug:sfdb_cycle_detection.obj
 0002:000050c0       ??_C@_0O@PICIAFIK@newNode?$CB?$DNNULL?$AA@ 00000001800530c0     sfc_debug:sfdb_cycle_detection.obj
 0002:000050d0       _pDefaultRawDllMain        00000001800530d0     MSVCRT:crtdll.obj
 0002:000050d0       _pRawDllMain               00000001800530d0     MSVCRT:crtdll.obj
 0002:000050e8       ?ProcessDetach@NativeDll@<CrtImplementationDetails>@@0IB 00000001800530e8     MSVCRT:tncleanup.obj
 0002:000050ec       ?ProcessAttach@NativeDll@<CrtImplementationDetails>@@0IB 00000001800530ec     MSVCRT:tncleanup.obj
 0002:000050f0       ?ThreadAttach@NativeDll@<CrtImplementationDetails>@@0IB 00000001800530f0     MSVCRT:tncleanup.obj
 0002:000050f4       ?ThreadDetach@NativeDll@<CrtImplementationDetails>@@0IB 00000001800530f4     MSVCRT:tncleanup.obj
 0002:000050f8       ?ProcessVerifier@NativeDll@<CrtImplementationDetails>@@0IB 00000001800530f8     MSVCRT:tncleanup.obj
 0002:00005100       __rtc_iaa                  0000000180053100     MSVCRT:_initsect_.obj
 0002:00005108       __rtc_izz                  0000000180053108     MSVCRT:_initsect_.obj
 0002:00005110       __rtc_taa                  0000000180053110     MSVCRT:_initsect_.obj
 0002:00005118       __rtc_tzz                  0000000180053118     MSVCRT:_initsect_.obj
 0002:000096a4       __IMPORT_DESCRIPTOR_libmx  00000001800576a4     libmx:libmx.dll
 0002:000096b8       __IMPORT_DESCRIPTOR_libmex 00000001800576b8     libmex:libmex.dll
 0002:000096cc       __IMPORT_DESCRIPTOR_libfixedpoint 00000001800576cc     libfixedpoint:libfixedpoint.dll
 0002:000096e0       __IMPORT_DESCRIPTOR_libut  00000001800576e0     libut:libut.dll
 0002:000096f4       __IMPORT_DESCRIPTOR_libmwmathutil 00000001800576f4     libmwmathutil:libmwmathutil.dll
 0002:00009708       __IMPORT_DESCRIPTOR_libemlrt 0000000180057708     libemlrt:libemlrt.dll
 0002:0000971c       __IMPORT_DESCRIPTOR_MSVCR100 000000018005771c     MSVCRT:MSVCR100.dll
 0002:00009730       __IMPORT_DESCRIPTOR_KERNEL32 0000000180057730     kernel32:KERNEL32.dll
 0002:00009744       __NULL_IMPORT_DESCRIPTOR   0000000180057744     libmx:libmx.dll
 0003:00006548       DYNAMIC_DIMENSION          000000018005f548     model2_sfun_registry.obj
 0003:000072a0       emlrtContextGlobal         00000001800602a0     sfc_mex:sfc_mex.obj
 0003:00007340       __security_cookie          0000000180060340     MSVCRT:gs_cookie.obj
 0003:00007348       __security_cookie_complement 0000000180060348     MSVCRT:gs_cookie.obj
 0003:00007350       _fltused                   0000000180060350     MSVCRT:dllsupp.obj
 0003:00007360       __native_dllmain_reason    0000000180060360     MSVCRT:natstart.obj
 0003:00007364       __native_vcclrit_reason    0000000180060364     MSVCRT:natstart.obj
 0003:000085c8       emlrtRootTLSGlobal         00000001800615c8     sfc_mex:sfc_mex.obj
 0003:000088b8       sSFDebuggerInitialized     00000001800618b8     sfc_debug:sfcdebug.obj
 0003:00009990       ?__type_info_root_node@@3U__type_info_node@@A 0000000180062990     MSVCRT:tncleanup.obj
 0003:000099a0       _sfTime_                   00000001800629a0     <common>
 0003:000099a8       _model2MachineNumber_      00000001800629a8     <common>
 0003:000099c0       gSfComplexDataTypeOffsets  00000001800629c0     <common>
 0003:00009a20       gSfDataTypeOffsets         0000000180062a20     <common>
 0003:00009a68       gMaskBits                  0000000180062a68     <common>
 0003:00009a70       __native_startup_state     0000000180062a70     <common>
 0003:00009a78       __native_startup_lock      0000000180062a78     <common>
 0003:00009a80       __onexitend                0000000180062a80     <common>
 0003:00009a88       __onexitbegin              0000000180062a88     <common>
 0003:00009a90       __dyn_tls_init_callback    0000000180062a90     <common>

 entry point at        0001:0004c510

 Static symbols

 0001:00000440       c1_info_helper             0000000180001440 f   c1_model2.obj
 0001:000013d0       get_sim_state_c1_model2    00000001800023d0 f   c1_model2.obj
 0001:000014e0       sf_get_sim_state_info_c1_model2 00000001800024e0 f   c1_model2.obj
 0001:000016c0       set_sim_state_c1_model2    00000001800026c0 f   c1_model2.obj
 0001:00001770       c1_update_debugger_state_c1_model2 0000000180002770 f   c1_model2.obj
 0001:00001780       c1_e_emlrt_marshallIn      0000000180002780 f   c1_model2.obj
 0001:000017e0       c1_f_emlrt_marshallIn      00000001800027e0 f   c1_model2.obj
 0001:00001920       mdlProcessParameters_c1_model2 0000000180002920 f   c1_model2.obj
 0001:000019e0       initialize_params_c1_model2 00000001800029e0 f   c1_model2.obj
 0001:000019f0       mdlSetWorkWidths_c1_model2 00000001800029f0 f   c1_model2.obj
 0001:00001e00       sf_get_instance_specialization 0000000180002e00 f   c1_model2.obj
 0001:00001e10       sf_set_sfun_dwork_info     0000000180002e10 f   c1_model2.obj
 0001:00001e50       mdlStart_c1_model2         0000000180002e50 f   c1_model2.obj
 0001:00002050       init_dsm_address_info      0000000180003050 f   c1_model2.obj
 0001:00002060       chart_debug_initialization 0000000180003060 f   c1_model2.obj
 0001:00002650       init_script_number_translation 0000000180003650 f   c1_model2.obj
 0001:00002660       c1_sf_marshallOut          0000000180003660 f   c1_model2.obj
 0001:000027b0       sf_opaque_initialize_c1_model2 00000001800037b0 f   c1_model2.obj
 0001:00002800       initialize_c1_model2       0000000180003800 f   c1_model2.obj
 0001:00002880       sf_check_dwork_consistency 0000000180003880 f   c1_model2.obj
 0001:00002970       sf_opaque_enable_c1_model2 0000000180003970 f   c1_model2.obj
 0001:00002990       enable_c1_model2           0000000180003990 f   c1_model2.obj
 0001:000029c0       sf_opaque_disable_c1_model2 00000001800039c0 f   c1_model2.obj
 0001:000029e0       disable_c1_model2          00000001800039e0 f   c1_model2.obj
 0001:00002a10       sf_opaque_gateway_c1_model2 0000000180003a10 f   c1_model2.obj
 0001:00002a30       sf_c1_model2               0000000180003a30 f   c1_model2.obj
 0001:00002bc0       c1_chartstep_c1_model2     0000000180003bc0 f   c1_model2.obj
 0001:00005ac0       c1_b_sf_marshallOut        0000000180006ac0 f   c1_model2.obj
 0001:00005b70       c1_sf_marshallIn           0000000180006b70 f   c1_model2.obj
 0001:00005c10       c1_emlrt_marshallIn        0000000180006c10 f   c1_model2.obj
 0001:00005ca0       c1_b_sf_marshallIn         0000000180006ca0 f   c1_model2.obj
 0001:00005da0       c1_b_emlrt_marshallIn      0000000180006da0 f   c1_model2.obj
 0001:00005e90       c1_c_sf_marshallOut        0000000180006e90 f   c1_model2.obj
 0001:000060e0       c1_c_sf_marshallIn         00000001800070e0 f   c1_model2.obj
 0001:00006230       c1_c_emlrt_marshallIn      0000000180007230 f   c1_model2.obj
 0001:00006330       c1_eml_scalar_eg           0000000180007330 f   c1_model2.obj
 0001:00006340       c1_b_eml_scalar_eg         0000000180007340 f   c1_model2.obj
 0001:00006350       sf_opaque_ext_mode_exec_c1_model2 0000000180007350 f   c1_model2.obj
 0001:00006370       ext_mode_exec_c1_model2    0000000180007370 f   c1_model2.obj
 0001:00006390       sf_opaque_get_sim_state_c1_model2 0000000180007390 f   c1_model2.obj
 0001:000063b0       sf_opaque_set_sim_state_c1_model2 00000001800073b0 f   c1_model2.obj
 0001:000063e0       sf_opaque_terminate_c1_model2 00000001800073e0 f   c1_model2.obj
 0001:00006460       finalize_c1_model2         0000000180007460 f   c1_model2.obj
 0001:00006470       sf_opaque_init_subchart_simstructs 0000000180007470 f   c1_model2.obj
 0001:00006490       initSimStructsc1_model2    0000000180007490 f   c1_model2.obj
 0001:000064a0       sf_get_sfun_dwork_checksum 00000001800074a0 f   c1_model2.obj
 0001:000064b0       mdlRTW_c1_model2           00000001800074b0 f   c1_model2.obj
 0001:00007620       get_sim_state_c2_model2    0000000180008620 f   c2_model2.obj
 0001:000077e0       sf_get_sim_state_info_c2_model2 00000001800087e0 f   c2_model2.obj
 0001:000079c0       set_sim_state_c2_model2    00000001800089c0 f   c2_model2.obj
 0001:00007ac0       c2_update_debugger_state_c2_model2 0000000180008ac0 f   c2_model2.obj
 0001:00007ad0       c2_emlrt_marshallIn        0000000180008ad0 f   c2_model2.obj
 0001:00007b40       c2_b_emlrt_marshallIn      0000000180008b40 f   c2_model2.obj
 0001:00007bd0       c2_d_emlrt_marshallIn      0000000180008bd0 f   c2_model2.obj
 0001:00007c30       c2_e_emlrt_marshallIn      0000000180008c30 f   c2_model2.obj
 0001:00007d70       mdlProcessParameters_c2_model2 0000000180008d70 f   c2_model2.obj
 0001:00007e30       initialize_params_c2_model2 0000000180008e30 f   c2_model2.obj
 0001:00007e40       mdlSetWorkWidths_c2_model2 0000000180008e40 f   c2_model2.obj
 0001:00008330       sf_get_instance_specialization 0000000180009330 f   c2_model2.obj
 0001:00008340       sf_set_sfun_dwork_info     0000000180009340 f   c2_model2.obj
 0001:00008380       mdlStart_c2_model2         0000000180009380 f   c2_model2.obj
 0001:00008580       init_dsm_address_info      0000000180009580 f   c2_model2.obj
 0001:00008590       chart_debug_initialization 0000000180009590 f   c2_model2.obj
 0001:00009610       init_script_number_translation 000000018000a610 f   c2_model2.obj
 0001:00009620       c2_sf_marshallOut          000000018000a620 f   c2_model2.obj
 0001:000096d0       c2_sf_marshallIn           000000018000a6d0 f   c2_model2.obj
 0001:00009770       sf_opaque_initialize_c2_model2 000000018000a770 f   c2_model2.obj
 0001:000097c0       initialize_c2_model2       000000018000a7c0 f   c2_model2.obj
 0001:00009840       sf_check_dwork_consistency 000000018000a840 f   c2_model2.obj
 0001:00009930       sf_opaque_enable_c2_model2 000000018000a930 f   c2_model2.obj
 0001:00009950       enable_c2_model2           000000018000a950 f   c2_model2.obj
 0001:00009980       sf_opaque_disable_c2_model2 000000018000a980 f   c2_model2.obj
 0001:000099a0       disable_c2_model2          000000018000a9a0 f   c2_model2.obj
 0001:000099d0       sf_opaque_gateway_c2_model2 000000018000a9d0 f   c2_model2.obj
 0001:000099f0       sf_c2_model2               000000018000a9f0 f   c2_model2.obj
 0001:0000b700       sf_opaque_ext_mode_exec_c2_model2 000000018000c700 f   c2_model2.obj
 0001:0000b720       ext_mode_exec_c2_model2    000000018000c720 f   c2_model2.obj
 0001:0000b740       sf_opaque_get_sim_state_c2_model2 000000018000c740 f   c2_model2.obj
 0001:0000b760       sf_opaque_set_sim_state_c2_model2 000000018000c760 f   c2_model2.obj
 0001:0000b790       sf_opaque_terminate_c2_model2 000000018000c790 f   c2_model2.obj
 0001:0000b810       finalize_c2_model2         000000018000c810 f   c2_model2.obj
 0001:0000b820       sf_opaque_init_subchart_simstructs 000000018000c820 f   c2_model2.obj
 0001:0000b840       initSimStructsc2_model2    000000018000c840 f   c2_model2.obj
 0001:0000b850       sf_get_sfun_dwork_checksum 000000018000c850 f   c2_model2.obj
 0001:0000b860       mdlRTW_c2_model2           000000018000c860 f   c2_model2.obj
 0001:0000bd40       c3_info_helper             000000018000cd40 f   c3_model2.obj
 0001:0000d3e0       get_sim_state_c3_model2    000000018000e3e0 f   c3_model2.obj
 0001:0000d600       sf_get_sim_state_info_c3_model2 000000018000e600 f   c3_model2.obj
 0001:0000d7e0       set_sim_state_c3_model2    000000018000e7e0 f   c3_model2.obj
 0001:0000d950       c3_update_debugger_state_c3_model2 000000018000e950 f   c3_model2.obj
 0001:0000d960       c3_emlrt_marshallIn        000000018000e960 f   c3_model2.obj
 0001:0000d9d0       c3_b_emlrt_marshallIn      000000018000e9d0 f   c3_model2.obj
 0001:0000dad0       c3_g_emlrt_marshallIn      000000018000ead0 f   c3_model2.obj
 0001:0000db30       c3_h_emlrt_marshallIn      000000018000eb30 f   c3_model2.obj
 0001:0000dc70       mdlProcessParameters_c3_model2 000000018000ec70 f   c3_model2.obj
 0001:0000dd30       initialize_params_c3_model2 000000018000ed30 f   c3_model2.obj
 0001:0000dd40       mdlSetWorkWidths_c3_model2 000000018000ed40 f   c3_model2.obj
 0001:0000e1a0       sf_get_instance_specialization 000000018000f1a0 f   c3_model2.obj
 0001:0000e1b0       sf_set_sfun_dwork_info     000000018000f1b0 f   c3_model2.obj
 0001:0000e1f0       mdlStart_c3_model2         000000018000f1f0 f   c3_model2.obj
 0001:0000e3f0       init_dsm_address_info      000000018000f3f0 f   c3_model2.obj
 0001:0000e400       chart_debug_initialization 000000018000f400 f   c3_model2.obj
 0001:0000ec90       init_script_number_translation 000000018000fc90 f   c3_model2.obj
 0001:0000eca0       c3_sf_marshallOut          000000018000fca0 f   c3_model2.obj
 0001:0000ee10       c3_sf_marshallIn           000000018000fe10 f   c3_model2.obj
 0001:0000ef10       c3_b_sf_marshallOut        000000018000ff10 f   c3_model2.obj
 0001:0000f070       c3_c_sf_marshallOut        0000000180010070 f   c3_model2.obj
 0001:0000f190       sf_opaque_initialize_c3_model2 0000000180010190 f   c3_model2.obj
 0001:0000f1e0       initialize_c3_model2       00000001800101e0 f   c3_model2.obj
 0001:0000f260       sf_check_dwork_consistency 0000000180010260 f   c3_model2.obj
 0001:0000f350       sf_opaque_enable_c3_model2 0000000180010350 f   c3_model2.obj
 0001:0000f370       enable_c3_model2           0000000180010370 f   c3_model2.obj
 0001:0000f3a0       sf_opaque_disable_c3_model2 00000001800103a0 f   c3_model2.obj
 0001:0000f3c0       disable_c3_model2          00000001800103c0 f   c3_model2.obj
 0001:0000f3f0       sf_opaque_gateway_c3_model2 00000001800103f0 f   c3_model2.obj
 0001:0000f410       sf_c3_model2               0000000180010410 f   c3_model2.obj
 0001:0000f6a0       c3_chartstep_c3_model2     00000001800106a0 f   c3_model2.obj
 0001:00011c50       c3_d_sf_marshallOut        0000000180012c50 f   c3_model2.obj
 0001:00011d00       c3_b_sf_marshallIn         0000000180012d00 f   c3_model2.obj
 0001:00011da0       c3_c_emlrt_marshallIn      0000000180012da0 f   c3_model2.obj
 0001:00011e30       c3_c_sf_marshallIn         0000000180012e30 f   c3_model2.obj
 0001:00011f00       c3_d_emlrt_marshallIn      0000000180012f00 f   c3_model2.obj
 0001:00011fd0       c3_e_sf_marshallOut        0000000180012fd0 f   c3_model2.obj
 0001:00012210       c3_d_sf_marshallIn         0000000180013210 f   c3_model2.obj
 0001:00012350       c3_e_emlrt_marshallIn      0000000180013350 f   c3_model2.obj
 0001:00012450       c3_mpower                  0000000180013450 f   c3_model2.obj
 0001:000124b0       c3_eml_scalar_eg           00000001800134b0 f   c3_model2.obj
 0001:000124c0       c3_eml_warning             00000001800134c0 f   c3_model2.obj
 0001:000125e0       sf_opaque_ext_mode_exec_c3_model2 00000001800135e0 f   c3_model2.obj
 0001:00012600       ext_mode_exec_c3_model2    0000000180013600 f   c3_model2.obj
 0001:00012620       sf_opaque_get_sim_state_c3_model2 0000000180013620 f   c3_model2.obj
 0001:00012640       sf_opaque_set_sim_state_c3_model2 0000000180013640 f   c3_model2.obj
 0001:00012670       sf_opaque_terminate_c3_model2 0000000180013670 f   c3_model2.obj
 0001:000126f0       finalize_c3_model2         00000001800136f0 f   c3_model2.obj
 0001:00012700       sf_opaque_init_subchart_simstructs 0000000180013700 f   c3_model2.obj
 0001:00012720       initSimStructsc3_model2    0000000180013720 f   c3_model2.obj
 0001:00012730       sf_get_sfun_dwork_checksum 0000000180013730 f   c3_model2.obj
 0001:00012740       mdlRTW_c3_model2           0000000180013740 f   c3_model2.obj
 0001:00012ee0       get_sim_state_c4_model2    0000000180013ee0 f   c4_model2.obj
 0001:00013160       sf_get_sim_state_info_c4_model2 0000000180014160 f   c4_model2.obj
 0001:00013340       set_sim_state_c4_model2    0000000180014340 f   c4_model2.obj
 0001:00013490       c4_update_debugger_state_c4_model2 0000000180014490 f   c4_model2.obj
 0001:000134a0       c4_emlrt_marshallIn        00000001800144a0 f   c4_model2.obj
 0001:00013510       c4_b_emlrt_marshallIn      0000000180014510 f   c4_model2.obj
 0001:000135a0       c4_d_emlrt_marshallIn      00000001800145a0 f   c4_model2.obj
 0001:00013600       c4_e_emlrt_marshallIn      0000000180014600 f   c4_model2.obj
 0001:00013740       mdlProcessParameters_c4_model2 0000000180014740 f   c4_model2.obj
 0001:00013800       initialize_params_c4_model2 0000000180014800 f   c4_model2.obj
 0001:00013810       mdlSetWorkWidths_c4_model2 0000000180014810 f   c4_model2.obj
 0001:00013c40       sf_get_instance_specialization 0000000180014c40 f   c4_model2.obj
 0001:00013c50       sf_set_sfun_dwork_info     0000000180014c50 f   c4_model2.obj
 0001:00013c90       mdlStart_c4_model2         0000000180014c90 f   c4_model2.obj
 0001:00013e90       init_dsm_address_info      0000000180014e90 f   c4_model2.obj
 0001:00013ea0       chart_debug_initialization 0000000180014ea0 f   c4_model2.obj
 0001:00014710       init_script_number_translation 0000000180015710 f   c4_model2.obj
 0001:00014720       c4_sf_marshallOut          0000000180015720 f   c4_model2.obj
 0001:000147d0       c4_sf_marshallIn           00000001800157d0 f   c4_model2.obj
 0001:00014870       c4_b_sf_marshallOut        0000000180015870 f   c4_model2.obj
 0001:000149d0       sf_opaque_initialize_c4_model2 00000001800159d0 f   c4_model2.obj
 0001:00014a20       initialize_c4_model2       0000000180015a20 f   c4_model2.obj
 0001:00014aa0       sf_check_dwork_consistency 0000000180015aa0 f   c4_model2.obj
 0001:00014b90       sf_opaque_enable_c4_model2 0000000180015b90 f   c4_model2.obj
 0001:00014bb0       enable_c4_model2           0000000180015bb0 f   c4_model2.obj
 0001:00014be0       sf_opaque_disable_c4_model2 0000000180015be0 f   c4_model2.obj
 0001:00014c00       disable_c4_model2          0000000180015c00 f   c4_model2.obj
 0001:00014c30       sf_opaque_gateway_c4_model2 0000000180015c30 f   c4_model2.obj
 0001:00014c50       sf_c4_model2               0000000180015c50 f   c4_model2.obj
 0001:00015260       sf_opaque_ext_mode_exec_c4_model2 0000000180016260 f   c4_model2.obj
 0001:00015280       ext_mode_exec_c4_model2    0000000180016280 f   c4_model2.obj
 0001:000152a0       sf_opaque_get_sim_state_c4_model2 00000001800162a0 f   c4_model2.obj
 0001:000152c0       sf_opaque_set_sim_state_c4_model2 00000001800162c0 f   c4_model2.obj
 0001:000152f0       sf_opaque_terminate_c4_model2 00000001800162f0 f   c4_model2.obj
 0001:00015370       finalize_c4_model2         0000000180016370 f   c4_model2.obj
 0001:00015380       sf_opaque_init_subchart_simstructs 0000000180016380 f   c4_model2.obj
 0001:000153a0       initSimStructsc4_model2    00000001800163a0 f   c4_model2.obj
 0001:000153b0       sf_get_sfun_dwork_checksum 00000001800163b0 f   c4_model2.obj
 0001:000153c0       mdlRTW_c4_model2           00000001800163c0 f   c4_model2.obj
 0001:00015890       c5_info_helper             0000000180016890 f   c5_model2.obj
 0001:00016ca0       get_sim_state_c5_model2    0000000180017ca0 f   c5_model2.obj
 0001:000170a0       sf_get_sim_state_info_c5_model2 00000001800180a0 f   c5_model2.obj
 0001:00017280       set_sim_state_c5_model2    0000000180018280 f   c5_model2.obj
 0001:00017470       c5_update_debugger_state_c5_model2 0000000180018470 f   c5_model2.obj
 0001:00017480       c5_emlrt_marshallIn        0000000180018480 f   c5_model2.obj
 0001:000174f0       c5_b_emlrt_marshallIn      00000001800184f0 f   c5_model2.obj
 0001:00017580       c5_d_emlrt_marshallIn      0000000180018580 f   c5_model2.obj
 0001:000175e0       c5_e_emlrt_marshallIn      00000001800185e0 f   c5_model2.obj
 0001:00017720       mdlProcessParameters_c5_model2 0000000180018720 f   c5_model2.obj
 0001:000177e0       initialize_params_c5_model2 00000001800187e0 f   c5_model2.obj
 0001:000177f0       mdlSetWorkWidths_c5_model2 00000001800187f0 f   c5_model2.obj
 0001:00017cb0       sf_get_instance_specialization 0000000180018cb0 f   c5_model2.obj
 0001:00017cc0       sf_set_sfun_dwork_info     0000000180018cc0 f   c5_model2.obj
 0001:00017d00       mdlStart_c5_model2         0000000180018d00 f   c5_model2.obj
 0001:00017f00       init_dsm_address_info      0000000180018f00 f   c5_model2.obj
 0001:00017f10       chart_debug_initialization 0000000180018f10 f   c5_model2.obj
 0001:00018db0       init_script_number_translation 0000000180019db0 f   c5_model2.obj
 0001:00018dc0       c5_sf_marshallOut          0000000180019dc0 f   c5_model2.obj
 0001:00018e70       c5_sf_marshallIn           0000000180019e70 f   c5_model2.obj
 0001:00018f10       sf_opaque_initialize_c5_model2 0000000180019f10 f   c5_model2.obj
 0001:00018f60       initialize_c5_model2       0000000180019f60 f   c5_model2.obj
 0001:00018fe0       sf_check_dwork_consistency 0000000180019fe0 f   c5_model2.obj
 0001:000190d0       sf_opaque_enable_c5_model2 000000018001a0d0 f   c5_model2.obj
 0001:000190f0       enable_c5_model2           000000018001a0f0 f   c5_model2.obj
 0001:00019120       sf_opaque_disable_c5_model2 000000018001a120 f   c5_model2.obj
 0001:00019140       disable_c5_model2          000000018001a140 f   c5_model2.obj
 0001:00019170       sf_opaque_gateway_c5_model2 000000018001a170 f   c5_model2.obj
 0001:00019190       sf_c5_model2               000000018001a190 f   c5_model2.obj
 0001:00019b50       c5_mod                     000000018001ab50 f   c5_model2.obj
 0001:00019db0       c5_eml_scalar_eg           000000018001adb0 f   c5_model2.obj
 0001:00019dc0       sf_opaque_ext_mode_exec_c5_model2 000000018001adc0 f   c5_model2.obj
 0001:00019de0       ext_mode_exec_c5_model2    000000018001ade0 f   c5_model2.obj
 0001:00019e00       sf_opaque_get_sim_state_c5_model2 000000018001ae00 f   c5_model2.obj
 0001:00019e20       sf_opaque_set_sim_state_c5_model2 000000018001ae20 f   c5_model2.obj
 0001:00019e50       sf_opaque_terminate_c5_model2 000000018001ae50 f   c5_model2.obj
 0001:00019ed0       finalize_c5_model2         000000018001aed0 f   c5_model2.obj
 0001:00019ee0       sf_opaque_init_subchart_simstructs 000000018001aee0 f   c5_model2.obj
 0001:00019f00       initSimStructsc5_model2    000000018001af00 f   c5_model2.obj
 0001:00019f10       sf_get_sfun_dwork_checksum 000000018001af10 f   c5_model2.obj
 0001:00019f20       mdlRTW_c5_model2           000000018001af20 f   c5_model2.obj
 0001:0001bb60       _ssFatalError              000000018001cb60 f   model2_sfun_registry.obj
 0001:0001ec10       ProcessMexSfunctionCmdLineCall 000000018001fc10 f   model2_sfun_registry.obj
 0001:0001ed20       mdlGetTimeOfNextVarHit     000000018001fd20 f   model2_sfun_registry.obj
 0001:0001ed70       _ProcessMexSfunctionCmdLineCall 000000018001fd70 f   model2_sfun_registry.obj
 0001:0001f4c0       _CreateSimStruct           00000001800204c0 f   model2_sfun_registry.obj
 0001:0001f650       _RegNumInputPortsCB        0000000180020650 f   model2_sfun_registry.obj
 0001:0001f6d0       _RegNumOutputPortsCB       00000001800206d0 f   model2_sfun_registry.obj
 0001:0001f7b0       sf_machine_load_sfunction_ptrs 00000001800207b0 f   model2_sfun_registry.obj
 0001:000205f0       getThreadLocalStorage      00000001800215f0 f   sfc_mex:sfc_mex.obj
 0001:00020630       releaseThreadLocalStorage  0000000180021630 f   sfc_mex:sfc_mex.obj
 0001:00020640       SNPRINTF_WRAPPER           0000000180021640 f   sfc_mex:sfc_mex.obj
 0001:00020660       convert_dims_to_string     0000000180021660 f   sfc_mex:sfc_mex.obj
 0001:00020880       is_real_T_equal_to_double  0000000180021880 f   sfc_mex:sfc_mex.obj
 0001:000208a0       is_real32_T_equal_to_double 00000001800218a0 f   sfc_mex:sfc_mex.obj
 0001:000208b0       is_mxLogical_equal_to_double 00000001800218b0 f   sfc_mex:sfc_mex.obj
 0001:000208d0       is_int8_T_equal_to_double  00000001800218d0 f   sfc_mex:sfc_mex.obj
 0001:000208f0       is_uint8_T_equal_to_double 00000001800218f0 f   sfc_mex:sfc_mex.obj
 0001:00020910       is_int16_T_equal_to_double 0000000180021910 f   sfc_mex:sfc_mex.obj
 0001:00020930       is_uint16_T_equal_to_double 0000000180021930 f   sfc_mex:sfc_mex.obj
 0001:00020950       is_int32_T_equal_to_double 0000000180021950 f   sfc_mex:sfc_mex.obj
 0001:00020970       is_uint32_T_equal_to_double 0000000180021970 f   sfc_mex:sfc_mex.obj
 0001:00020990       is_char_T_equal_to_double  0000000180021990 f   sfc_mex:sfc_mex.obj
 0001:000209b0       sf_zero_numeric_value      00000001800219b0 f   sfc_mex:sfc_mex.obj
 0001:000209e0       sf_error_append_debugger_context_if_available 00000001800219e0 f   sfc_mex:sfc_mex.obj
 0001:00020ab0       sf_mex_get_error_message_for_write 0000000180021ab0 f   sfc_mex:sfc_mex.obj
 0001:00020ae0       replace_single_quotes_by_doubled_quotes 0000000180021ae0 f   sfc_mex:sfc_mex.obj
 0001:00020d20       sf_mex_get_formatted_error_string 0000000180021d20 f   sfc_mex:sfc_mex.obj
 0001:000212a0       sf_mex_destroy_array       00000001800222a0 f   sfc_mex:sfc_mex.obj
 0001:00021630       sfrtAddSize                0000000180022630 f   sfc_mex:sfc_mex.obj
 0001:000216f0       sfrtGenSizeString          00000001800226f0 f   sfc_mex:sfc_mex.obj
 0001:00021760       sfIsProperVector           0000000180022760 f   sfc_mex:sfc_mex.obj
 0001:00021790       sfIsRowVector              0000000180022790 f   sfc_mex:sfc_mex.obj
 0001:000218d0       sf_ExtractMessageId        00000001800228d0 f   sfc_mex:sfc_mex.obj
 0001:00021bb0       sf_mex_err                 0000000180022bb0 f   sfc_mex:sfc_mex.obj
 0001:00021c60       sf_error_dimension_out_of_bound 0000000180022c60 f   sfc_mex:sfc_mex.obj
 0001:00021d20       sf_mex_check_and_set_actual_dimensions 0000000180022d20 f   sfc_mex:sfc_mex.obj
 0001:00021f00       sf_mex_check_complex       0000000180022f00 f   sfc_mex:sfc_mex.obj
 0001:00021f90       sf_mex_check_sparse        0000000180022f90 f   sfc_mex:sfc_mex.obj
 0001:00021ff0       sf_mex_check_numerictype   0000000180022ff0 f   sfc_mex:sfc_mex.obj
 0001:00022180       sf_mex_check_fimath        0000000180023180 f   sfc_mex:sfc_mex.obj
 0001:00022d30       size_mismatch_error        0000000180023d30 f   sfc_mex:sfc_mex.obj
 0001:000237d0       check_array_dimensions     00000001800247d0 f   sfc_mex:sfc_mex.obj
 0001:00023840       check_input_mxarray        0000000180024840 f   sfc_mex:sfc_mex.obj
 0001:00023f80       sf_numeric_value_to_double 0000000180024f80 f   sfc_mex:sfc_mex.obj
 0001:00023fd0       ml_generic_out_of_bounds_check 0000000180024fd0 f   sfc_mex:sfc_mex.obj
 0001:000241a0       ml_get_element_value_from_array 00000001800251a0 f   sfc_mex:sfc_mex.obj
 0001:00024540       _ml_generic_castability_check 0000000180025540 f   sfc_mex:sfc_mex.obj
 0001:000252a0       ml_generic_castability_check 00000001800262a0 f   sfc_mex:sfc_mex.obj
 0001:00025340       ml_check_mx_array_for_single_castability 0000000180026340 f   sfc_mex:sfc_mex.obj
 0001:000253e0       ml_check_mx_array_for_logical_castability 00000001800263e0 f   sfc_mex:sfc_mex.obj
 0001:00025480       ml_check_mx_array_for_int8_castability 0000000180026480 f   sfc_mex:sfc_mex.obj
 0001:00025530       ml_check_mx_array_for_uint8_castability 0000000180026530 f   sfc_mex:sfc_mex.obj
 0001:00025590       ml_check_mx_array_for_int16_castability 0000000180026590 f   sfc_mex:sfc_mex.obj
 0001:000255f0       ml_check_mx_array_for_uint16_castability 00000001800265f0 f   sfc_mex:sfc_mex.obj
 0001:00025650       ml_check_mx_array_for_int32_castability 0000000180026650 f   sfc_mex:sfc_mex.obj
 0001:000256b0       ml_check_mx_array_for_uint32_castability 00000001800266b0 f   sfc_mex:sfc_mex.obj
 0001:00025710       ml_check_mx_array_for_castability 0000000180026710 f   sfc_mex:sfc_mex.obj
 0001:00026040       set_data_value             0000000180027040 f   sfc_mex:sfc_mex.obj
 0001:000263b0       get_data_value             00000001800273b0 f   sfc_mex:sfc_mex.obj
 0001:000264c0       get_next_element_address   00000001800274c0 f   sfc_mex:sfc_mex.obj
 0001:00026590       sf_normalize_index         0000000180027590 f   sfc_mex:sfc_mex.obj
 0001:00026920       ml_array_index_bound_check 0000000180027920 f   sfc_mex:sfc_mex.obj
 0001:00027440       mx_value                   0000000180028440 f   sfc_mex:sfc_mex.obj
 0001:00027490       sf_create_numeric_array    0000000180028490 f   sfc_mex:sfc_mex.obj
 0001:00027530       sf_mex_assign_to_mx_array  0000000180028530 f   sfc_mex:sfc_mex.obj
 0001:00027880       assign_from_mx_array       0000000180028880 f   sfc_mex:sfc_mex.obj
 0001:000280b0       sf_mex_import_v            00000001800290b0 f   sfc_mex:sfc_mex.obj
 0001:000287b0       get_machine_and_chart_file_number 00000001800297b0 f   sfc_mex:sfc_sf.obj
 0001:000288a0       get_sfun_block_specialization 00000001800298a0 f   sfc_mex:sfc_sf.obj
 0001:00028950       call_sf_machine_global_method_dispatcher 0000000180029950 f   sfc_mex:sfc_sf.obj
 0001:00028ba0       mdl_zeroCrossings_processing 0000000180029ba0 f   sfc_mex:sfc_sf.obj
 0001:00028c70       mdl_derivatives_processing 0000000180029c70 f   sfc_mex:sfc_sf.obj
 0001:00028f30       mdl_outputs_continuous_legacy 0000000180029f30 f   sfc_mex:sfc_sf.obj
 0001:00028fb0       mdl_outputs_processing     0000000180029fb0 f   sfc_mex:sfc_sf.obj
 0001:00029220       mdl_enable_processing      000000018002a220 f   sfc_mex:sfc_sf.obj
 0001:000292f0       mdl_disable_processing     000000018002a2f0 f   sfc_mex:sfc_sf.obj
 0001:0002a060       sf_call_output_fcn_enable_disable 000000018002b060 f   sfc_mex:sfc_sf.obj
 0001:0002a2e0       set_dwork_information_from_mx_array 000000018002b2e0 f   sfc_mex:sfc_sf.obj
 0001:0002aba0       ptr2mxStruct               000000018002bba0 f   sfc_mex:sfc_sf.obj
 0001:0002aeb0       SNPRINTF_WRAPPER           000000018002beb0 f   sfc_debug:sfcdebug.obj
 0001:0002aed0       sf_debug_chart_instance_initialized_quick 000000018002bed0 f   sfc_debug:sfcdebug.obj
 0001:0002aee0       sf_debug_chart_instance_initialized 000000018002bee0 f   sfc_debug:sfcdebug.obj
 0001:0002b080       sfrtAddSize                000000018002c080 f   sfc_debug:sfcdebug.obj
 0001:0002b140       sfrtGenSizeString          000000018002c140 f   sfc_debug:sfcdebug.obj
 0001:0002b850       fill_single_message_info   000000018002c850 f   sfc_debug:sfcdebug.obj
 0001:0002ba10       sf_debug_sim_status_listener 000000018002ca10 f   sfc_debug:sfcdebug.obj
 0001:0002bf80       sf_debug_form_mask_bits    000000018002cf80 f   sfc_debug:sfcdebug.obj
 0001:0002bfc0       sf_debug_form_sf_data_type_offsets 000000018002cfc0 f   sfc_debug:sfcdebug.obj
 0001:0002c080       sf_debug_free_all          000000018002d080 f   sfc_debug:sfcdebug.obj
 0001:0002c230       sf_debug_append_debugger_context 000000018002d230 f   sfc_debug:sfcdebug.obj
 0001:0002c3d0       sf_debug_update_always_honor_breakpoints 000000018002d3d0 f   sfc_debug:sfcdebug.obj
 0001:0002c5a0       local_strdup               000000018002d5a0 f   sfc_debug:sfcdebug.obj
 0001:0002d480       sf_debug_em_terminate      000000018002e480 f   sfc_debug:sfcdebug.obj
 0001:0002d4c0       sf_debug_push_eml_function 000000018002e4c0 f   sfc_debug:sfcdebug.obj
 0001:0002d560       sf_debug_pop_eml_function  000000018002e560 f   sfc_debug:sfcdebug.obj
 0001:0002e260       sf_debug_get_machine_number_from_id_or_name 000000018002f260 f   sfc_debug:sfcdebug.obj
 0001:0002e3b0       sf_debug_get_chart_number_from_id 000000018002f3b0 f   sfc_debug:sfcdebug.obj
 0001:0002f150       sf_debug_transfer_control_to_debugger_GUI 0000000180030150 f   sfc_debug:sfcdebug.obj
 0001:000300e0       sf_debug_scripts_rehash    00000001800310e0 f   sfc_debug:sfcdebug.obj
 0001:00030320       sf_debug_get_script_line_count 0000000180031320 f   sfc_debug:sfcdebug.obj
 0001:00030c50       cv_eml_state_cvId          0000000180031c50 f   sfc_debug:sfcdebug.obj
 0001:00030cc0       cv_eml_trans_cvId          0000000180031cc0 f   sfc_debug:sfcdebug.obj
 0001:00032050       sf_debug_data_array_bounds_error 0000000180033050 f   sfc_debug:sfcdebug.obj
 0001:00032480       eml_debug_runtime_error_doclink 0000000180033480 f   sfc_debug:sfcdebug.obj
 0001:000325e0       sf_debug_runtime_error     00000001800335e0 f   sfc_debug:sfcdebug.obj
 0001:00032650       sf_debug_matlab_error      0000000180033650 f   sfc_debug:sfcdebug.obj
 0001:00032f90       sf_debug_data_value_error  0000000180033f90 f   sfc_debug:sfcdebug.obj
 0001:00033890       sf_debug_data_loss_error   0000000180034890 f   sfc_debug:sfcdebug.obj
 0001:00034820       call_cv_range_check        0000000180035820 f   sfc_debug:sfcdebug.obj
 0001:00034ff0       sf_debug_invoke_cycle_detection_code 0000000180035ff0 f   sfc_debug:sfcdebug.obj
 0001:00035e70       sf_reset_debug_info_struct 0000000180036e70 f   sfc_debug:sfcdebug.obj
 0001:000366d0       cv_script_cvId             00000001800376d0 f   sfc_debug:sfcdebug.obj
 0001:00037430       sfc_api_chart_visible      0000000180038430 f   sfc_debug:sfc_api.obj
 0001:000374b0       sfc_api_active_instance    00000001800384b0 f   sfc_debug:sfc_api.obj
 0001:00037530       sfc_api_machine_load       0000000180038530 f   sfc_debug:sfc_api.obj
 0001:00037600       sfc_api_debugger_alive     0000000180038600 f   sfc_debug:sfc_api.obj
 0001:00037610       sfc_api_go                 0000000180038610 f   sfc_debug:sfc_api.obj
 0001:00037620       sfc_api_step_over          0000000180038620 f   sfc_debug:sfc_api.obj
 0001:00037630       sfc_api_step_out           0000000180038630 f   sfc_debug:sfc_api.obj
 0001:00037640       sfc_api_resume             0000000180038640 f   sfc_debug:sfc_api.obj
 0001:00037650       sfc_api_break              0000000180038650 f   sfc_debug:sfc_api.obj
 0001:00037660       sfc_api_stop_debugging     0000000180038660 f   sfc_debug:sfc_api.obj
 0001:000376b0       sfc_api_is_cycle_detected  00000001800386b0 f   sfc_debug:sfc_api.obj
 0001:00037700       sfc_api_is_array_bounds_detected 0000000180038700 f   sfc_debug:sfc_api.obj
 0001:00037750       sfc_api_set_disable_all_breakpoints 0000000180038750 f   sfc_debug:sfc_api.obj
 0001:000377c0       sfc_api_disable_all_breakpoints_and_go 00000001800387c0 f   sfc_debug:sfc_api.obj
 0001:000377d0       sfc_api_close              00000001800387d0 f   sfc_debug:sfc_api.obj
 0001:000377e0       sfc_api_browse_data        00000001800387e0 f   sfc_debug:sfc_api.obj
 0001:00037850       sfc_api_watch_data         0000000180038850 f   sfc_debug:sfc_api.obj
 0001:00037950       sfc_api_extract_message_post_receive_info 0000000180038950 f   sfc_debug:sfc_api.obj
 0001:00037970       sfc_api_assign_data        0000000180038970 f   sfc_debug:sfc_api.obj
 0001:00037a10       sfc_api_whos               0000000180038a10 f   sfc_debug:sfc_api.obj
 0001:00037aa0       sfc_api_get_consistency_info 0000000180038aa0 f   sfc_debug:sfc_api.obj
 0001:00037ab0       sfc_api_browse_trace       0000000180038ab0 f   sfc_debug:sfc_api.obj
 0001:00037ac0       sfc_api_break_on_chart_entry 0000000180038ac0 f   sfc_debug:sfc_api.obj
 0001:00037ae0       sfc_api_break_on_event_broadcast 0000000180038ae0 f   sfc_debug:sfc_api.obj
 0001:00037b00       sfc_api_break_on_state_entry 0000000180038b00 f   sfc_debug:sfc_api.obj
 0001:00037b20       sfc_api_set_watch          0000000180038b20 f   sfc_debug:sfc_api.obj
 0001:00037bc0       sfc_api_set_breakpoints    0000000180038bc0 f   sfc_debug:sfc_api.obj
 0001:00037c60       sfc_api_set_eml_breakpoints 0000000180038c60 f   sfc_debug:sfc_api.obj
 0001:00037ce0       sfc_api_set_script_breakpoints 0000000180038ce0 f   sfc_debug:sfc_api.obj
 0001:00037d30       sfc_api_add_script_breakpoints 0000000180038d30 f   sfc_debug:sfc_api.obj
 0001:00037d80       sfc_api_clear_script_breakpoints 0000000180038d80 f   sfc_debug:sfc_api.obj
 0001:00037dd0       sfc_api_query_script_breakpoints 0000000180038dd0 f   sfc_debug:sfc_api.obj
 0001:00037e30       sfc_api_get_script_id      0000000180038e30 f   sfc_debug:sfc_api.obj
 0001:00037ef0       sfc_api_get_active_states  0000000180038ef0 f   sfc_debug:sfc_api.obj
 0001:00037f70       sfc_api_break_between_times 0000000180038f70 f   sfc_debug:sfc_api.obj
 0001:00037fd0       sfc_api_get_instance_handle 0000000180038fd0 f   sfc_debug:sfc_api.obj
 0001:00038080       sfc_api_set_animation      0000000180039080 f   sfc_debug:sfc_api.obj
 0001:000380d0       sfc_api_select_chart       00000001800390d0 f   sfc_debug:sfc_api.obj
 0001:00038130       sfc_api_select_charts      0000000180039130 f   sfc_debug:sfc_api.obj
 0001:00038160       sfc_api_cycle_detection_check 0000000180039160 f   sfc_debug:sfc_api.obj
 0001:000381b0       sfc_api_data_range_check   00000001800391b0 f   sfc_debug:sfc_api.obj
 0001:00038200       sfc_api_transition_conflict_check 0000000180039200 f   sfc_debug:sfc_api.obj
 0001:00038250       sfc_api_state_consistency_check 0000000180039250 f   sfc_debug:sfc_api.obj
 0001:000382a0       sfc_api_set_instance_cv_ids 00000001800392a0 f   sfc_debug:sfc_api.obj
 0001:000383b0       sfc_api_set_script_cv_ids  00000001800393b0 f   sfc_debug:sfc_api.obj
 0001:00038460       sfc_api_get_current_machine_id 0000000180039460 f   sfc_debug:sfc_api.obj
 0001:00038490       sfc_api_get_current_machine_number 0000000180039490 f   sfc_debug:sfc_api.obj
 0001:000384c0       sfc_api_get_current_chart_number 00000001800394c0 f   sfc_debug:sfc_api.obj
 0001:000384f0       sfc_api_get_current_instance_number 00000001800394f0 f   sfc_debug:sfc_api.obj
 0001:00038520       sfc_api_get_current_instance_handle 0000000180039520 f   sfc_debug:sfc_api.obj
 0001:00038540       sfc_api_get_current_is_minor_time_step 0000000180039540 f   sfc_debug:sfc_api.obj
 0001:00038570       sfc_api_get_current_machine_name 0000000180039570 f   sfc_debug:sfc_api.obj
 0001:00038590       sfc_api_get_current_chart_id 0000000180039590 f   sfc_debug:sfc_api.obj
 0001:000385c0       sfc_api_get_current_object_type 00000001800395c0 f   sfc_debug:sfc_api.obj
 0001:000385f0       sfc_api_get_current_event_type 00000001800395f0 f   sfc_debug:sfc_api.obj
 0001:00038620       sfc_api_get_current_object_id 0000000180039620 f   sfc_debug:sfc_api.obj
 0001:00038650       sfc_get_current_active_event_type 0000000180039650 f   sfc_debug:sfc_api.obj
 0001:00038680       sfc_api_get_current_active_event_id 0000000180039680 f   sfc_debug:sfc_api.obj
 0001:000386b0       sfc_api_get_current_simulation_time 00000001800396b0 f   sfc_debug:sfc_api.obj
 0001:000386d0       sfc_get_current_tag_type   00000001800396d0 f   sfc_debug:sfc_api.obj
 0001:00038700       sfc_get_current_coverage_percentage 0000000180039700 f   sfc_debug:sfc_api.obj
 0001:00038720       sfc_get_current_statement_context 0000000180039720 f   sfc_debug:sfc_api.obj
 0001:00038740       sfc_get_current_optional_integer 0000000180039740 f   sfc_debug:sfc_api.obj
 0001:00038770       sfc_get_current_statement_info 0000000180039770 f   sfc_debug:sfc_api.obj
 0001:00038810       sfc_api_get                0000000180039810 f   sfc_debug:sfc_api.obj
 0001:00039480       sf_debug_sm_fill_state_activity_data 000000018003a480 f   sfc_debug:sfdb_animation.obj
 0001:0003bd80       void_ptr_stack_vector_free_total 000000018003cd80 f   sfc_debug:sfdb_data_browse.obj
 0001:0003be10       sf_debug_st_terminate_machine 000000018003ce10 f   sfc_debug:sfdb_data_browse.obj
 0001:0003be50       sf_debug_st_terminate_instance 000000018003ce50 f   sfc_debug:sfdb_data_browse.obj
 0001:0003c200       push_on_to_void_ptr_stack  000000018003d200 f   sfc_debug:sfdb_data_browse.obj
 0001:0003c390       pop_from_void_ptr_stack    000000018003d390 f   sfc_debug:sfdb_data_browse.obj
 0001:0003c4c0       sf_debug_st_get_data_value 000000018003d4c0 f   sfc_debug:sfdb_data_browse.obj
 0001:0003ca50       mx_value                   000000018003da50 f   sfc_debug:sfdb_data_browse.obj
 0001:0003ca90       sf_debug_st_fill_data_struct 000000018003da90 f   sfc_debug:sfdb_data_browse.obj
 0001:0003cdd0       data_type_format_strings   000000018003ddd0 f   sfc_debug:sfdb_data_browse.obj
 0001:0003ce80       sf_debug_st_fill_data      000000018003de80 f   sfc_debug:sfdb_data_browse.obj
 0001:0003dbd0       sf_debug_hm_get_simulink_handle 000000018003ebd0 f   sfc_debug:sfdb_handle_management.obj
 0001:0003e6d0       sf_debug_hm_initialize_globals 000000018003f6d0 f   sfc_debug:sfdb_handle_management.obj
 0001:0003e7d0       sf_debug_hm_get_machine_debug_flag 000000018003f7d0 f   sfc_debug:sfdb_handle_management.obj
 0001:0003e940       sf_debug_hm_get_machine_id 000000018003f940 f   sfc_debug:sfdb_handle_management.obj
 0001:0003ea60       sf_debug_hm_get_chart_id   000000018003fa60 f   sfc_debug:sfdb_handle_management.obj
 0001:0003ec00       sf_debug_hm_register_executing_SFunction 000000018003fc00 f   sfc_debug:sfdb_handle_management.obj
 0001:0003ef90       sf_debug_hm_form_object_boolean_properties 000000018003ff90 f   sfc_debug:sfdb_handle_management.obj
 0001:0003f260       sf_debug_hm_form_object_properties 0000000180040260 f   sfc_debug:sfdb_handle_management.obj
 0001:0003f4a0       sf_debug_hm_terminate_charts 00000001800404a0 f   sfc_debug:sfdb_handle_management.obj
 0001:0003fc00       sf_debug_hm_terminate_machines 0000000180040c00 f   sfc_debug:sfdb_handle_management.obj
 0001:00041800       sf_debug_ss_copy_dimension 0000000180042800 f   sfc_debug:sfdb_symbol_scope.obj
 0001:000418c0       sf_debug_ss_get_number_elements 00000001800428c0 f   sfc_debug:sfdb_symbol_scope.obj
 0001:000418e0       sf_debug_ss_fill_data_struct 00000001800428e0 f   sfc_debug:sfdb_symbol_scope.obj
 0001:00041c30       sf_debug_ss_reset_data_info 0000000180042c30 f   sfc_debug:sfdb_symbol_scope.obj
 0001:00041c90       sf_debug_fill_data_info_by_symbol_scope_entry 0000000180042c90 f   sfc_debug:sfdb_symbol_scope.obj
 0001:00041d50       sf_debug_fill_data_info_by_data_vector 0000000180042d50 f   sfc_debug:sfdb_symbol_scope.obj
 0001:00041fa0       get_data_info_helper       0000000180042fa0 f   sfc_debug:sfdb_symbol_scope.obj
 0001:000420a0       sf_debug_ss_get_data_info  00000001800430a0 f   sfc_debug:sfdb_symbol_scope.obj
 0001:000422d0       sf_debug_select_mex_function 00000001800432d0 f   sfc_debug:sfdb_symbol_scope.obj
 0001:00042300       sf_debug_is_dyn_matrix_initialized 0000000180043300 f   sfc_debug:sfdb_symbol_scope.obj
 0001:00042320       sf_debug_ss_set_data_value_try 0000000180043320 f   sfc_debug:sfdb_symbol_scope.obj
 0001:000424f0       sf_debug_ss_get_data_value 00000001800434f0 f   sfc_debug:sfdb_symbol_scope.obj
 0001:00042c60       sf_debug_ss_data_bytes_string 0000000180043c60 f   sfc_debug:sfdb_symbol_scope.obj
 0001:00042d10       sf_debug_ss_data_class_string 0000000180043d10 f   sfc_debug:sfdb_symbol_scope.obj
 0001:000430a0       sf_debug_ss_data_size_string 00000001800440a0 f   sfc_debug:sfdb_symbol_scope.obj
 0001:00043180       sf_debug_ss_data_create_data_info_struct 0000000180044180 f   sfc_debug:sfdb_symbol_scope.obj
 0001:00043450       sf_debug_ss_data_create_name_value_pair 0000000180044450 f   sfc_debug:sfdb_symbol_scope.obj
 0001:000434f0       sf_debug_ss_data_get_whos_info 00000001800444f0 f   sfc_debug:sfdb_symbol_scope.obj
 0001:00043500       same_named_data_in_data_array 0000000180044500 f   sfc_debug:sfdb_symbol_scope.obj
 0001:00044d90       sf_debug_cc_terminate_chart 0000000180045d90 f   sfc_debug:sfdb_coverage.obj
 0001:00045130       sf_debug_cc_terminate_instance 0000000180046130 f   sfc_debug:sfdb_coverage.obj
 0001:00045d20       sf_debug_cc_mark_object_if_needed 0000000180046d20 f   sfc_debug:sfdb_coverage.obj
 0001:00046620       sf_debug_bm_initialize_eml 0000000180047620 f   sfc_debug:sfdb_breakpoints.obj
 0001:00047760       sf_debug_bm_map_debug_tag_to_breakpoint_tag 0000000180048760 f   sfc_debug:sfdb_breakpoints.obj
 0001:00047840       sf_debug_bm_is_a_eml_breakpoint_impl 0000000180048840 f   sfc_debug:sfdb_breakpoints.obj
 0001:00049380       sf_debug_sc_push_on_error_stack 000000018004a380 f   sfc_debug:sfdb_state_consistency.obj
 0001:000494b0       sf_debug_sc_reset_error_stack 000000018004a4b0 f   sfc_debug:sfdb_state_consistency.obj
 0001:00049640       sf_debug_sc_is_state_inconsistent 000000018004a640 f   sfc_debug:sfdb_state_consistency.obj
 0001:00049940       sf_debug_sc_fill_consistency_info 000000018004a940 f   sfc_debug:sfdb_state_consistency.obj
 0001:00049f20       void_assertion_fcn         000000018004af20 f   sfc_debug:sfdb_call_stack.obj
 0001:0004a4a0       sf_debug_tm_fill_local_trace 000000018004b4a0 f   sfc_debug:sfdb_call_stack.obj
 0001:0004aa70       sf_debug_cd_terminate_instance 000000018004ba70 f   sfc_debug:sfdb_cycle_detection.obj
 0001:0004aad0       sf_debug_cd_free_checksum_stack 000000018004bad0 f   sfc_debug:sfdb_cycle_detection.obj
 0001:0004ab20       sf_debug_cd_reset_pack_strings 000000018004bb20 f   sfc_debug:sfdb_cycle_detection.obj
 0001:0004b1e0       md5file_clear              000000018004c1e0 f   sfc_debug:ckmd5.obj
 0001:0004b210       Encode                     000000018004c210 f   sfc_debug:ckmd5.obj
 0001:0004b260       Decode                     000000018004c260 f   sfc_debug:ckmd5.obj
 0001:0004b300       MD5Transform               000000018004c300 f   sfc_debug:ckmd5.obj
 0001:0004bb50       md5file_addn               000000018004cb50 f   sfc_debug:ckmd5.obj
 0001:0004bc20       md5file_hash               000000018004cc20 f   sfc_debug:ckmd5.obj
 0001:0004c118       pre_c_init                 000000018004d118 f   MSVCRT:crtdll.obj
 0001:0004c3d4       __DllMainCRTStartup        000000018004d3d4 f   MSVCRT:crtdll.obj
 0001:0004cae0       __DllMainCRTStartup$filt$0 000000018004dae0 f   MSVCRT:crtdll.obj
 0001:0004cb10       __DllMainCRTStartup$fin$1  000000018004db10 f   MSVCRT:crtdll.obj
 0001:0004cb2a       _onexit$fin$0              000000018004db2a f   MSVCRT:atonexit.obj
 0001:0004cb50       _IsNonwritableInCurrentImage$filt$0 000000018004db50 f   MSVCRT:pesect.obj
